(lp0
(i__main__
Pokemon
p1
(dp2
S'attr_vals'
p3
(lp4
(lp5
S'001'
p6
aa(lp7
S'Bulbasaur'
p8
aa(lp9
S'Grass'
p10
aS'Poison'
p11
aa(lp12
S'90'
p13
aa(lp14
S'126'
p15
aa(lp16
S'126'
p17
aa(lp18
S'16%'
p19
aa(lp20
S'10%'
p21
aa(lp22
S'25'
p23
aa(lp24
S'Tackle'
p25
aS'Vine Whip'
p26
aa(lp27
S'Power Whip'
p28
aS'Seed Bomb'
p29
aS'Sludge Bomb'
p30
aasS'attr_names'
p31
(lp32
S'#'
p33
aS'Name'
p34
aS'Type'
p35
aS'Stamina'
p36
aS'Attack'
p37
aS'Defense'
p38
aS'Capture Rate'
p39
aS'Flee Rate'
p40
aS'Candy'
p41
aS'Quick Moves'
p42
aS'Special Moves'
p43
asba(i__main__
Pokemon
p44
(dp45
g3
(lp46
(lp47
S'002'
p48
aa(lp49
S'Ivysaur'
p50
aa(lp51
S'Grass'
p52
aS'Poison'
p53
aa(lp54
S'120'
p55
aa(lp56
S'156'
p57
aa(lp58
S'158'
p59
aa(lp60
S'8%'
p61
aa(lp62
S'7%'
p63
aa(lp64
S'100'
p65
aa(lp66
S'Razor Leaf'
p67
aS'Vine Whip'
p68
aa(lp69
S'Power Whip'
p70
aS'Sludge Bomb'
p71
aS'Solar Beam'
p72
aasg31
g32
sba(i__main__
Pokemon
p73
(dp74
g3
(lp75
(lp76
S'003'
p77
aa(lp78
S'Venusaur'
p79
aa(lp80
S'Grass'
p81
aS'Poison'
p82
aa(lp83
S'160'
p84
aa(lp85
S'198'
p86
aa(lp87
S'200'
p88
aa(lp89
S'4%'
p90
aa(lp91
S'5%'
p92
aa(lp93
S'-'
p94
aa(lp95
S'Razor Leaf'
p96
aS'Vine Whip'
p97
aa(lp98
S'Petal Blizzard'
p99
aS'Sludge Bomb'
p100
aS'Solar Beam'
p101
aasg31
g32
sba(i__main__
Pokemon
p102
(dp103
g3
(lp104
(lp105
S'004'
p106
aa(lp107
S'Charmander'
p108
aa(lp109
S'Fire'
p110
aa(lp111
S'78'
p112
aa(lp113
S'128'
p114
aa(lp115
S'108'
p116
aa(lp117
S'16%'
p118
aa(lp119
S'10%'
p120
aa(lp121
S'25'
p122
aa(lp123
S'Ember'
p124
aS'Scratch'
p125
aa(lp126
S'Flame Burst'
p127
aS'Flame Charge'
p128
aS'Flamethrower'
p129
aasg31
g32
sba(i__main__
Pokemon
p130
(dp131
g3
(lp132
(lp133
S'005'
p134
aa(lp135
S'Charmeleon'
p136
aa(lp137
S'Fire'
p138
aa(lp139
S'116'
p140
aa(lp141
S'160'
p142
aa(lp143
S'140'
p144
aa(lp145
S'8%'
p146
aa(lp147
S'7%'
p148
aa(lp149
S'100'
p150
aa(lp151
S'Ember'
p152
aS'Scratch'
p153
aa(lp154
S'Fire Punch'
p155
aS'Flame Burst'
p156
aS'Flamethrower'
p157
aasg31
g32
sba(i__main__
Pokemon
p158
(dp159
g3
(lp160
(lp161
S'006'
p162
aa(lp163
S'Charizard'
p164
aa(lp165
S'Fire'
p166
aS'Flying'
p167
aa(lp168
S'156'
p169
aa(lp170
S'212'
p171
aa(lp172
S'182'
p173
aa(lp174
S'4%'
p175
aa(lp176
S'5%'
p177
aa(lp178
S'-'
p179
aa(lp180
S'Ember'
p181
aS'Wing Attack'
p182
aa(lp183
S'Dragon Claw'
p184
aS'Fire Blast'
p185
aS'Flamethrower'
p186
aasg31
g32
sba(i__main__
Pokemon
p187
(dp188
g3
(lp189
(lp190
S'007'
p191
aa(lp192
S'Squirtle'
p193
aa(lp194
S'Water'
p195
aa(lp196
S'88'
p197
aa(lp198
S'112'
p199
aa(lp200
S'142'
p201
aa(lp202
S'16%'
p203
aa(lp204
S'10%'
p205
aa(lp206
S'25'
p207
aa(lp208
S'Bubble'
p209
aS'Tackle'
p210
aa(lp211
S'Aqua Jet'
p212
aS'Aqua Tail'
p213
aS'Water Pulse'
p214
aasg31
g32
sba(i__main__
Pokemon
p215
(dp216
g3
(lp217
(lp218
S'008'
p219
aa(lp220
S'Wartortle'
p221
aa(lp222
S'Water'
p223
aa(lp224
S'118'
p225
aa(lp226
S'144'
p227
aa(lp228
S'176'
p229
aa(lp230
S'8%'
p231
aa(lp232
S'7%'
p233
aa(lp234
S'100'
p235
aa(lp236
S'Bite'
p237
aS'Water Gun'
p238
aa(lp239
S'Aqua Jet'
p240
aS'Hydro Pump'
p241
aS'Ice Beam'
p242
aasg31
g32
sba(i__main__
Pokemon
p243
(dp244
g3
(lp245
(lp246
S'009'
p247
aa(lp248
S'Blastoise'
p249
aa(lp250
S'Water'
p251
aa(lp252
S'158'
p253
aa(lp254
S'186'
p255
aa(lp256
S'222'
p257
aa(lp258
S'4%'
p259
aa(lp260
S'5%'
p261
aa(lp262
S'-'
p263
aa(lp264
S'Bite'
p265
aS'Water Gun'
p266
aa(lp267
S'Flash Cannon'
p268
aS'Hydro Pump'
p269
aS'Ice Beam'
p270
aasg31
g32
sba(i__main__
Pokemon
p271
(dp272
g3
(lp273
(lp274
S'010'
p275
aa(lp276
S'Caterpie'
p277
aa(lp278
S'Bug'
p279
aa(lp280
S'90'
p281
aa(lp282
S'62'
p283
aa(lp284
S'66'
p285
aa(lp286
S'40%'
p287
aa(lp288
S'20%'
p289
aa(lp290
S'12'
p291
aa(lp292
S'Bug Bite'
p293
aS'Tackle'
p294
aa(lp295
S'Struggle'
p296
aasg31
g32
sba(i__main__
Pokemon
p297
(dp298
g3
(lp299
(lp300
S'011'
p301
aa(lp302
S'Metapod'
p303
aa(lp304
S'Bug'
p305
aa(lp306
S'100'
p307
aa(lp308
S'56'
p309
aa(lp310
S'86'
p311
aa(lp312
S'20%'
p313
aa(lp314
S'9%'
p315
aa(lp316
S'50'
p317
aa(lp318
S'Bug Bite'
p319
aS'Tackle'
p320
aa(lp321
S'Struggle'
p322
aasg31
g32
sba(i__main__
Pokemon
p323
(dp324
g3
(lp325
(lp326
S'012'
p327
aa(lp328
S'Butterfree'
p329
aa(lp330
S'Bug'
p331
aS'Flying'
p332
aa(lp333
S'120'
p334
aa(lp335
S'144'
p336
aa(lp337
S'144'
p338
aa(lp339
S'10%'
p340
aa(lp341
S'6%'
p342
aa(lp343
S'-'
p344
aa(lp345
S'Bug Bite'
p346
aS'Confusion'
p347
aa(lp348
S'Bug Buzz'
p349
aS'Psychic'
p350
aS'Signal Beam'
p351
aasg31
g32
sba(i__main__
Pokemon
p352
(dp353
g3
(lp354
(lp355
S'013'
p356
aa(lp357
S'Weedle'
p358
aa(lp359
S'Bug'
p360
aS'Poison'
p361
aa(lp362
S'80'
p363
aa(lp364
S'68'
p365
aa(lp366
S'64'
p367
aa(lp368
S'40%'
p369
aa(lp370
S'20%'
p371
aa(lp372
S'12'
p373
aa(lp374
S'Bug Bite'
p375
aS'Poison Sting'
p376
aa(lp377
S'Struggle'
p378
aasg31
g32
sba(i__main__
Pokemon
p379
(dp380
g3
(lp381
(lp382
S'014'
p383
aa(lp384
S'Kakuna'
p385
aa(lp386
S'Bug'
p387
aS'Poison'
p388
aa(lp389
S'90'
p390
aa(lp391
S'62'
p392
aa(lp393
S'82'
p394
aa(lp395
S'20%'
p396
aa(lp397
S'9%'
p398
aa(lp399
S'50'
p400
aa(lp401
S'Bug Bite'
p402
aS'Poison Sting'
p403
aa(lp404
S'Struggle'
p405
aasg31
g32
sba(i__main__
Pokemon
p406
(dp407
g3
(lp408
(lp409
S'015'
p410
aa(lp411
S'Beedrill'
p412
aa(lp413
S'Bug'
p414
aS'Poison'
p415
aa(lp416
S'130'
p417
aa(lp418
S'144'
p419
aa(lp420
S'130'
p421
aa(lp422
S'10%'
p423
aa(lp424
S'6%'
p425
aa(lp426
S'-'
p427
aa(lp428
S'Bug Bite'
p429
aS'Poison Jab'
p430
aa(lp431
S'Aerial Ace'
p432
aS'Sludge Bomb'
p433
aS'X-Scissor'
p434
aasg31
g32
sba(i__main__
Pokemon
p435
(dp436
g3
(lp437
(lp438
S'016'
p439
aa(lp440
S'Pidgey'
p441
aa(lp442
S'Normal'
p443
aS'Flying'
p444
aa(lp445
S'80'
p446
aa(lp447
S'94'
p448
aa(lp449
S'90'
p450
aa(lp451
S'40%'
p452
aa(lp453
S'20%'
p454
aa(lp455
S'12'
p456
aa(lp457
S'Quick Attack'
p458
aS'Tackle'
p459
aa(lp460
S'Aerial Ace'
p461
aS'Air Cutter'
p462
aS'Twister'
p463
aasg31
g32
sba(i__main__
Pokemon
p464
(dp465
g3
(lp466
(lp467
S'017'
p468
aa(lp469
S'Pidgeotto'
p470
aa(lp471
S'Normal'
p472
aS'Flying'
p473
aa(lp474
S'126'
p475
aa(lp476
S'126'
p477
aa(lp478
S'122'
p479
aa(lp480
S'20%'
p481
aa(lp482
S'9%'
p483
aa(lp484
S'50'
p485
aa(lp486
S'Steel Wing'
p487
aS'Wing Attack'
p488
aa(lp489
S'Aerial Ace'
p490
aS'Air Cutter'
p491
aS'Twister'
p492
aasg31
g32
sba(i__main__
Pokemon
p493
(dp494
g3
(lp495
(lp496
S'018'
p497
aa(lp498
S'Pidgeot'
p499
aa(lp500
S'Normal'
p501
aS'Flying'
p502
aa(lp503
S'166'
p504
aa(lp505
S'170'
p506
aa(lp507
S'166'
p508
aa(lp509
S'10%'
p510
aa(lp511
S'6%'
p512
aa(lp513
S'-'
p514
aa(lp515
S'Steel Wing'
p516
aS'Wing Attack'
p517
aa(lp518
S'Aerial Ace'
p519
aS'Air Cutter'
p520
aS'Hurricane'
p521
aasg31
g32
sba(i__main__
Pokemon
p522
(dp523
g3
(lp524
(lp525
S'019'
p526
aa(lp527
S'Rattata'
p528
aa(lp529
S'Normal'
p530
aa(lp531
S'60'
p532
aa(lp533
S'92'
p534
aa(lp535
S'86'
p536
aa(lp537
S'40%'
p538
aa(lp539
S'20%'
p540
aa(lp541
S'25'
p542
aa(lp543
S'Quick Attack'
p544
aS'Tackle'
p545
aa(lp546
S'Body Slam'
p547
aS'Dig'
p548
aS'Hyper Fang'
p549
aasg31
g32
sba(i__main__
Pokemon
p550
(dp551
g3
(lp552
(lp553
S'020'
p554
aa(lp555
S'Raticate'
p556
aa(lp557
S'Normal'
p558
aa(lp559
S'110'
p560
aa(lp561
S'146'
p562
aa(lp563
S'150'
p564
aa(lp565
S'16%'
p566
aa(lp567
S'7%'
p568
aa(lp569
S'-'
p570
aa(lp571
S'Bite'
p572
aS'Quick Attack'
p573
aa(lp574
S'Dig'
p575
aS'Hyper Beam'
p576
aS'Hyper Fang'
p577
aasg31
g32
sba(i__main__
Pokemon
p578
(dp579
g3
(lp580
(lp581
S'021'
p582
aa(lp583
S'Spearow'
p584
aa(lp585
S'Normal'
p586
aS'Flying'
p587
aa(lp588
S'80'
p589
aa(lp590
S'102'
p591
aa(lp592
S'78'
p593
aa(lp594
S'40%'
p595
aa(lp596
S'15%'
p597
aa(lp598
S'50'
p599
aa(lp600
S'Peck'
p601
aS'Quick Attack'
p602
aa(lp603
S'Aerial Ace'
p604
aS'Drill Peck'
p605
aS'Twister'
p606
aasg31
g32
sba(i__main__
Pokemon
p607
(dp608
g3
(lp609
(lp610
S'022'
p611
aa(lp612
S'Fearow'
p613
aa(lp614
S'Normal'
p615
aS'Flying'
p616
aa(lp617
S'130'
p618
aa(lp619
S'168'
p620
aa(lp621
S'146'
p622
aa(lp623
S'16%'
p624
aa(lp625
S'7%'
p626
aa(lp627
S'-'
p628
aa(lp629
S'Peck'
p630
aS'Steel Wing'
p631
aa(lp632
S'Aerial Ace'
p633
aS'Drill Run'
p634
aS'Twister'
p635
aasg31
g32
sba(i__main__
Pokemon
p636
(dp637
g3
(lp638
(lp639
S'023'
p640
aa(lp641
S'Ekans'
p642
aa(lp643
S'Poison'
p644
aa(lp645
S'70'
p646
aa(lp647
S'112'
p648
aa(lp649
S'112'
p650
aa(lp651
S'40%'
p652
aa(lp653
S'15%'
p654
aa(lp655
S'50'
p656
aa(lp657
S'Acid'
p658
aS'Poison Sting'
p659
aa(lp660
S'Gunk Shot'
p661
aS'Sludge Bomb'
p662
aS'Wrap'
p663
aasg31
g32
sba(i__main__
Pokemon
p664
(dp665
g3
(lp666
(lp667
S'024'
p668
aa(lp669
S'Arbok'
p670
aa(lp671
S'Poison'
p672
aa(lp673
S'120'
p674
aa(lp675
S'166'
p676
aa(lp677
S'166'
p678
aa(lp679
S'16%'
p680
aa(lp681
S'7%'
p682
aa(lp683
S'-'
p684
aa(lp685
S'Acid'
p686
aS'Bite'
p687
aa(lp688
S'Dark Pulse'
p689
aS'Gunk Shot'
p690
aS'Sludge Wave'
p691
aasg31
g32
sba(i__main__
Pokemon
p692
(dp693
g3
(lp694
(lp695
S'025'
p696
aa(lp697
S'Pikachu'
p698
aa(lp699
S'Electric'
p700
aa(lp701
S'70'
p702
aa(lp703
S'124'
p704
aa(lp705
S'108'
p706
aa(lp707
S'16%'
p708
aa(lp709
S'10%'
p710
aa(lp711
S'50'
p712
aa(lp713
S'Quick Attack'
p714
aS'Thunder Shock'
p715
aa(lp716
S'Discharge'
p717
aS'Thunder'
p718
aS'Thunderbolt'
p719
aasg31
g32
sba(i__main__
Pokemon
p720
(dp721
g3
(lp722
(lp723
S'026'
p724
aa(lp725
S'Raichu'
p726
aa(lp727
S'Electric'
p728
aa(lp729
S'120'
p730
aa(lp731
S'200'
p732
aa(lp733
S'154'
p734
aa(lp735
S'8%'
p736
aa(lp737
S'6%'
p738
aa(lp739
S'-'
p740
aa(lp741
S'Spark'
p742
aS'Thunder Shock'
p743
aa(lp744
S'Brick Break'
p745
aS'Thunder'
p746
aS'Thunder Punch'
p747
aasg31
g32
sba(i__main__
Pokemon
p748
(dp749
g3
(lp750
(lp751
S'027'
p752
aa(lp753
S'Sandshrew'
p754
aa(lp755
S'Ground'
p756
aa(lp757
S'100'
p758
aa(lp759
S'90'
p760
aa(lp761
S'114'
p762
aa(lp763
S'40%'
p764
aa(lp765
S'10%'
p766
aa(lp767
S'50'
p768
aa(lp769
S'Mud Shot'
p770
aS'Scratch'
p771
aa(lp772
S'Dig'
p773
aS'Rock Slide'
p774
aS'Rock Tomb'
p775
aasg31
g32
sba(i__main__
Pokemon
p776
(dp777
g3
(lp778
(lp779
S'028'
p780
aa(lp781
S'Sandslash'
p782
aa(lp783
S'Ground'
p784
aa(lp785
S'150'
p786
aa(lp787
S'150'
p788
aa(lp789
S'172'
p790
aa(lp791
S'16%'
p792
aa(lp793
S'6%'
p794
aa(lp795
S'-'
p796
aa(lp797
S'Metal Claw'
p798
aS'Mud Shot'
p799
aa(lp800
S'Bulldoze'
p801
aS'Earthquake'
p802
aS'Rock Tomb'
p803
aasg31
g32
sba(i__main__
Pokemon
p804
(dp805
g3
(lp806
(lp807
S'029'
p808
aa(lp809
S'Nidoran\xe2\x99\x80'
p810
aa(lp811
S'Poison'
p812
aa(lp813
S'110'
p814
aa(lp815
S'100'
p816
aa(lp817
S'104'
p818
aa(lp819
S'40%'
p820
aa(lp821
S'15%'
p822
aa(lp823
S'25'
p824
aa(lp825
S'Bite'
p826
aS'Poison Sting'
p827
aa(lp828
S'Body Slam'
p829
aS'Poison Fang'
p830
aS'Sludge Bomb'
p831
aasg31
g32
sba(i__main__
Pokemon
p832
(dp833
g3
(lp834
(lp835
S'030'
p836
aa(lp837
S'Nidorina'
p838
aa(lp839
S'Poison'
p840
aa(lp841
S'140'
p842
aa(lp843
S'132'
p844
aa(lp845
S'136'
p846
aa(lp847
S'20%'
p848
aa(lp849
S'7%'
p850
aa(lp851
S'100'
p852
aa(lp853
S'Bite'
p854
aS'Poison Sting'
p855
aa(lp856
S'Dig'
p857
aS'Poison Fang'
p858
aS'Sludge Bomb'
p859
aasg31
g32
sba(i__main__
Pokemon
p860
(dp861
g3
(lp862
(lp863
S'031'
p864
aa(lp865
S'Nidoqueen'
p866
aa(lp867
S'Poison'
p868
aS'Ground'
p869
aa(lp870
S'180'
p871
aa(lp872
S'184'
p873
aa(lp874
S'190'
p875
aa(lp876
S'10%'
p877
aa(lp878
S'5%'
p879
aa(lp880
S'-'
p881
aa(lp882
S'Bite'
p883
aS'Poison Jab'
p884
aa(lp885
S'Earthquake'
p886
aS'Sludge Wave'
p887
aS'Stone Edge'
p888
aasg31
g32
sba(i__main__
Pokemon
p889
(dp890
g3
(lp891
(lp892
S'032'
p893
aa(lp894
S'Nidoran\xe2\x99\x82'
p895
aa(lp896
S'Poison'
p897
aa(lp898
S'92'
p899
aa(lp900
S'110'
p901
aa(lp902
S'94'
p903
aa(lp904
S'40%'
p905
aa(lp906
S'15%'
p907
aa(lp908
S'25'
p909
aa(lp910
S'Peck'
p911
aS'Poison Sting'
p912
aa(lp913
S'Body Slam'
p914
aS'Horn Attack'
p915
aS'Sludge Bomb'
p916
aasg31
g32
sba(i__main__
Pokemon
p917
(dp918
g3
(lp919
(lp920
S'033'
p921
aa(lp922
S'Nidorino'
p923
aa(lp924
S'Poison'
p925
aa(lp926
S'122'
p927
aa(lp928
S'142'
p929
aa(lp930
S'128'
p931
aa(lp932
S'20%'
p933
aa(lp934
S'7%'
p935
aa(lp936
S'100'
p937
aa(lp938
S'Poison Jab'
p939
aS'Poison Sting'
p940
aa(lp941
S'Dig'
p942
aS'Horn Attack'
p943
aS'Sludge Bomb'
p944
aasg31
g32
sba(i__main__
Pokemon
p945
(dp946
g3
(lp947
(lp948
S'034'
p949
aa(lp950
S'Nidoking'
p951
aa(lp952
S'Poison'
p953
aS'Ground'
p954
aa(lp955
S'162'
p956
aa(lp957
S'204'
p958
aa(lp959
S'170'
p960
aa(lp961
S'10%'
p962
aa(lp963
S'5%'
p964
aa(lp965
S'-'
p966
aa(lp967
S'Fury Cutter'
p968
aS'Poison Jab'
p969
aa(lp970
S'Earthquake'
p971
aS'Megahorn'
p972
aS'Sludge Wave'
p973
aasg31
g32
sba(i__main__
Pokemon
p974
(dp975
g3
(lp976
(lp977
S'035'
p978
aa(lp979
S'Clefairy'
p980
aa(lp981
S'Fairy'
p982
aa(lp983
S'140'
p984
aa(lp985
S'116'
p986
aa(lp987
S'124'
p988
aa(lp989
S'24%'
p990
aa(lp991
S'10%'
p992
aa(lp993
S'50'
p994
aa(lp995
S'Pound'
p996
aS'Zen Headbutt'
p997
aa(lp998
S'Body Slam'
p999
aS'Disarming Voice'
p1000
aS'Moonblast'
p1001
aasg31
g32
sba(i__main__
Pokemon
p1002
(dp1003
g3
(lp1004
(lp1005
S'036'
p1006
aa(lp1007
S'Clefable'
p1008
aa(lp1009
S'Fairy'
p1010
aa(lp1011
S'190'
p1012
aa(lp1013
S'178'
p1014
aa(lp1015
S'178'
p1016
aa(lp1017
S'8%'
p1018
aa(lp1019
S'6%'
p1020
aa(lp1021
S'-'
p1022
aa(lp1023
S'Pound'
p1024
aS'Zen Headbutt'
p1025
aa(lp1026
S'Dazzling Gleam'
p1027
aS'Moonblast'
p1028
aS'Psychic'
p1029
aasg31
g32
sba(i__main__
Pokemon
p1030
(dp1031
g3
(lp1032
(lp1033
S'037'
p1034
aa(lp1035
S'Vulpix'
p1036
aa(lp1037
S'Fire'
p1038
aa(lp1039
S'76'
p1040
aa(lp1041
S'106'
p1042
aa(lp1043
S'118'
p1044
aa(lp1045
S'24%'
p1046
aa(lp1047
S'10%'
p1048
aa(lp1049
S'50'
p1050
aa(lp1051
S'Ember'
p1052
aS'Quick Attack'
p1053
aa(lp1054
S'Body Slam'
p1055
aS'Flame Charge'
p1056
aS'Flamethrower'
p1057
aasg31
g32
sba(i__main__
Pokemon
p1058
(dp1059
g3
(lp1060
(lp1061
S'038'
p1062
aa(lp1063
S'Ninetales'
p1064
aa(lp1065
S'Fire'
p1066
aa(lp1067
S'146'
p1068
aa(lp1069
S'176'
p1070
aa(lp1071
S'194'
p1072
aa(lp1073
S'8%'
p1074
aa(lp1075
S'6%'
p1076
aa(lp1077
S'-'
p1078
aa(lp1079
S'Ember'
p1080
aS'Feint Attack'
p1081
aa(lp1082
S'Fire Blast'
p1083
aS'Flamethrower'
p1084
aS'Heat Wave'
p1085
aasg31
g32
sba(i__main__
Pokemon
p1086
(dp1087
g3
(lp1088
(lp1089
S'039'
p1090
aa(lp1091
S'Jigglypuff'
p1092
aa(lp1093
S'Normal'
p1094
aS'Fairy'
p1095
aa(lp1096
S'230'
p1097
aa(lp1098
S'98'
p1099
aa(lp1100
S'54'
p1101
aa(lp1102
S'40%'
p1103
aa(lp1104
S'10%'
p1105
aa(lp1106
S'50'
p1107
aa(lp1108
S'Feint Attack'
p1109
aS'Pound'
p1110
aa(lp1111
S'Body Slam'
p1112
aS'Disarming Voice'
p1113
aS'Play Rough'
p1114
aasg31
g32
sba(i__main__
Pokemon
p1115
(dp1116
g3
(lp1117
(lp1118
S'040'
p1119
aa(lp1120
S'Wigglytuff'
p1121
aa(lp1122
S'Normal'
p1123
aS'Fairy'
p1124
aa(lp1125
S'280'
p1126
aa(lp1127
S'168'
p1128
aa(lp1129
S'108'
p1130
aa(lp1131
S'16%'
p1132
aa(lp1133
S'6%'
p1134
aa(lp1135
S'-'
p1136
aa(lp1137
S'Feint Attack'
p1138
aS'Pound'
p1139
aa(lp1140
S'Dazzling Gleam'
p1141
aS'Hyper Beam'
p1142
aS'Play Rough'
p1143
aasg31
g32
sba(i__main__
Pokemon
p1144
(dp1145
g3
(lp1146
(lp1147
S'041'
p1148
aa(lp1149
S'Zubat'
p1150
aa(lp1151
S'Poison'
p1152
aS'Flying'
p1153
aa(lp1154
S'80'
p1155
aa(lp1156
S'88'
p1157
aa(lp1158
S'90'
p1159
aa(lp1160
S'40%'
p1161
aa(lp1162
S'20%'
p1163
aa(lp1164
S'50'
p1165
aa(lp1166
S'Bite'
p1167
aS'Quick Attack'
p1168
aa(lp1169
S'Air Cutter'
p1170
aS'Poison Fang'
p1171
aS'Sludge Bomb'
p1172
aasg31
g32
sba(i__main__
Pokemon
p1173
(dp1174
g3
(lp1175
(lp1176
S'042'
p1177
aa(lp1178
S'Golbat'
p1179
aa(lp1180
S'Poison'
p1181
aS'Flying'
p1182
aa(lp1183
S'150'
p1184
aa(lp1185
S'164'
p1186
aa(lp1187
S'164'
p1188
aa(lp1189
S'16%'
p1190
aa(lp1191
S'7%'
p1192
aa(lp1193
S'-'
p1194
aa(lp1195
S'Bite'
p1196
aS'Wing Attack'
p1197
aa(lp1198
S'Air Cutter'
p1199
aS'Ominous Wind'
p1200
aS'Poison Fang'
p1201
aasg31
g32
sba(i__main__
Pokemon
p1202
(dp1203
g3
(lp1204
(lp1205
S'043'
p1206
aa(lp1207
S'Oddish'
p1208
aa(lp1209
S'Grass'
p1210
aS'Poison'
p1211
aa(lp1212
S'90'
p1213
aa(lp1214
S'134'
p1215
aa(lp1216
S'130'
p1217
aa(lp1218
S'48%'
p1219
aa(lp1220
S'15%'
p1221
aa(lp1222
S'25'
p1223
aa(lp1224
S'Acid'
p1225
aS'Razor Leaf'
p1226
aa(lp1227
S'Moonblast'
p1228
aS'Seed Bomb'
p1229
aS'Sludge Bomb'
p1230
aasg31
g32
sba(i__main__
Pokemon
p1231
(dp1232
g3
(lp1233
(lp1234
S'044'
p1235
aa(lp1236
S'Gloom'
p1237
aa(lp1238
S'Grass'
p1239
aS'Poison'
p1240
aa(lp1241
S'120'
p1242
aa(lp1243
S'162'
p1244
aa(lp1245
S'158'
p1246
aa(lp1247
S'24%'
p1248
aa(lp1249
S'7%'
p1250
aa(lp1251
S'100'
p1252
aa(lp1253
S'Acid'
p1254
aS'Razor Leaf'
p1255
aa(lp1256
S'Moonblast'
p1257
aS'Petal Blizzard'
p1258
aS'Sludge Bomb'
p1259
aasg31
g32
sba(i__main__
Pokemon
p1260
(dp1261
g3
(lp1262
(lp1263
S'045'
p1264
aa(lp1265
S'Vileplume'
p1266
aa(lp1267
S'Grass'
p1268
aS'Poison'
p1269
aa(lp1270
S'150'
p1271
aa(lp1272
S'202'
p1273
aa(lp1274
S'190'
p1275
aa(lp1276
S'12%'
p1277
aa(lp1278
S'5%'
p1279
aa(lp1280
S'-'
p1281
aa(lp1282
S'Acid'
p1283
aS'Razor Leaf'
p1284
aa(lp1285
S'Moonblast'
p1286
aS'Petal Blizzard'
p1287
aS'Solar Beam'
p1288
aasg31
g32
sba(i__main__
Pokemon
p1289
(dp1290
g3
(lp1291
(lp1292
S'046'
p1293
aa(lp1294
S'Paras'
p1295
aa(lp1296
S'Bug'
p1297
aS'Grass'
p1298
aa(lp1299
S'70'
p1300
aa(lp1301
S'122'
p1302
aa(lp1303
S'120'
p1304
aa(lp1305
S'32%'
p1306
aa(lp1307
S'15%'
p1308
aa(lp1309
S'50'
p1310
aa(lp1311
S'Bug Bite'
p1312
aS'Scratch'
p1313
aa(lp1314
S'Cross Poison'
p1315
aS'Seed Bomb'
p1316
aS'X-Scissor'
p1317
aasg31
g32
sba(i__main__
Pokemon
p1318
(dp1319
g3
(lp1320
(lp1321
S'047'
p1322
aa(lp1323
S'Parasect'
p1324
aa(lp1325
S'Bug'
p1326
aS'Grass'
p1327
aa(lp1328
S'120'
p1329
aa(lp1330
S'162'
p1331
aa(lp1332
S'170'
p1333
aa(lp1334
S'16%'
p1335
aa(lp1336
S'7%'
p1337
aa(lp1338
S'-'
p1339
aa(lp1340
S'Bug Bite'
p1341
aS'Fury Cutter'
p1342
aa(lp1343
S'Cross Poison'
p1344
aS'Solar Beam'
p1345
aS'X-Scissor'
p1346
aasg31
g32
sba(i__main__
Pokemon
p1347
(dp1348
g3
(lp1349
(lp1350
S'048'
p1351
aa(lp1352
S'Venonat'
p1353
aa(lp1354
S'Bug'
p1355
aS'Poison'
p1356
aa(lp1357
S'120'
p1358
aa(lp1359
S'108'
p1360
aa(lp1361
S'118'
p1362
aa(lp1363
S'40%'
p1364
aa(lp1365
S'15%'
p1366
aa(lp1367
S'50'
p1368
aa(lp1369
S'Bug Bite'
p1370
aS'Confusion'
p1371
aa(lp1372
S'Dazzling Gleam'
p1373
aS'Psybeam'
p1374
aS'Shadow Ball'
p1375
aasg31
g32
sba(i__main__
Pokemon
p1376
(dp1377
g3
(lp1378
(lp1379
S'049'
p1380
aa(lp1381
S'Venomoth'
p1382
aa(lp1383
S'Bug'
p1384
aS'Poison'
p1385
aa(lp1386
S'140'
p1387
aa(lp1388
S'172'
p1389
aa(lp1390
S'154'
p1391
aa(lp1392
S'16%'
p1393
aa(lp1394
S'7%'
p1395
aa(lp1396
S'-'
p1397
aa(lp1398
S'Bug Bite'
p1399
aS'Confusion'
p1400
aa(lp1401
S'Bug Buzz'
p1402
aS'Poison Fang'
p1403
aS'Psychic'
p1404
aasg31
g32
sba(i__main__
Pokemon
p1405
(dp1406
g3
(lp1407
(lp1408
S'050'
p1409
aa(lp1410
S'Diglett'
p1411
aa(lp1412
S'Ground'
p1413
aa(lp1414
S'20'
p1415
aa(lp1416
S'108'
p1417
aa(lp1418
S'86'
p1419
aa(lp1420
S'40%'
p1421
aa(lp1422
S'10%'
p1423
aa(lp1424
S'50'
p1425
aa(lp1426
S'Mud Shot'
p1427
aS'Scratch'
p1428
aa(lp1429
S'Dig'
p1430
aS'Mud Bomb'
p1431
aS'Rock Tomb'
p1432
aasg31
g32
sba(i__main__
Pokemon
p1433
(dp1434
g3
(lp1435
(lp1436
S'051'
p1437
aa(lp1438
S'Dugtrio'
p1439
aa(lp1440
S'Ground'
p1441
aa(lp1442
S'70'
p1443
aa(lp1444
S'148'
p1445
aa(lp1446
S'140'
p1447
aa(lp1448
S'16%'
p1449
aa(lp1450
S'6%'
p1451
aa(lp1452
S'-'
p1453
aa(lp1454
S'Mud Shot'
p1455
aS'Sucker Punch'
p1456
aa(lp1457
S'Earthquake'
p1458
aS'Mud Bomb'
p1459
aS'Stone Edge'
p1460
aasg31
g32
sba(i__main__
Pokemon
p1461
(dp1462
g3
(lp1463
(lp1464
S'052'
p1465
aa(lp1466
S'Meowth'
p1467
aa(lp1468
S'Normal'
p1469
aa(lp1470
S'80'
p1471
aa(lp1472
S'104'
p1473
aa(lp1474
S'94'
p1475
aa(lp1476
S'40%'
p1477
aa(lp1478
S'15%'
p1479
aa(lp1480
S'50'
p1481
aa(lp1482
S'Bite'
p1483
aS'Scratch'
p1484
aa(lp1485
S'Body Slam'
p1486
aS'Dark Pulse'
p1487
aS'Night Slash'
p1488
aasg31
g32
sba(i__main__
Pokemon
p1489
(dp1490
g3
(lp1491
(lp1492
S'053'
p1493
aa(lp1494
S'Persian'
p1495
aa(lp1496
S'Normal'
p1497
aa(lp1498
S'130'
p1499
aa(lp1500
S'156'
p1501
aa(lp1502
S'146'
p1503
aa(lp1504
S'16%'
p1505
aa(lp1506
S'7%'
p1507
aa(lp1508
S'-'
p1509
aa(lp1510
S'Feint Attack'
p1511
aS'Scratch'
p1512
aa(lp1513
S'Night Slash'
p1514
aS'Play Rough'
p1515
aS'Power Gem'
p1516
aasg31
g32
sba(i__main__
Pokemon
p1517
(dp1518
g3
(lp1519
(lp1520
S'054'
p1521
aa(lp1522
S'Psyduck'
p1523
aa(lp1524
S'Water'
p1525
aa(lp1526
S'100'
p1527
aa(lp1528
S'132'
p1529
aa(lp1530
S'112'
p1531
aa(lp1532
S'40%'
p1533
aa(lp1534
S'10%'
p1535
aa(lp1536
S'50'
p1537
aa(lp1538
S'Water Gun'
p1539
aS'Zen Headbutt'
p1540
aa(lp1541
S'Aqua Tail'
p1542
aS'Cross Chop'
p1543
aS'Psybeam'
p1544
aasg31
g32
sba(i__main__
Pokemon
p1545
(dp1546
g3
(lp1547
(lp1548
S'055'
p1549
aa(lp1550
S'Golduck'
p1551
aa(lp1552
S'Water'
p1553
aa(lp1554
S'160'
p1555
aa(lp1556
S'194'
p1557
aa(lp1558
S'176'
p1559
aa(lp1560
S'16%'
p1561
aa(lp1562
S'6%'
p1563
aa(lp1564
S'-'
p1565
aa(lp1566
S'Confusion'
p1567
aS'Water Gun'
p1568
aa(lp1569
S'Hydro Pump'
p1570
aS'Ice Beam'
p1571
aS'Psychic'
p1572
aasg31
g32
sba(i__main__
Pokemon
p1573
(dp1574
g3
(lp1575
(lp1576
S'056'
p1577
aa(lp1578
S'Mankey'
p1579
aa(lp1580
S'Fighting'
p1581
aa(lp1582
S'80'
p1583
aa(lp1584
S'122'
p1585
aa(lp1586
S'96'
p1587
aa(lp1588
S'40%'
p1589
aa(lp1590
S'10%'
p1591
aa(lp1592
S'50'
p1593
aa(lp1594
S'Karate Chop'
p1595
aS'Scratch'
p1596
aa(lp1597
S'Brick Break'
p1598
aS'Cross Chop'
p1599
aS'Low Sweep'
p1600
aasg31
g32
sba(i__main__
Pokemon
p1601
(dp1602
g3
(lp1603
(lp1604
S'057'
p1605
aa(lp1606
S'Primeape'
p1607
aa(lp1608
S'Fighting'
p1609
aa(lp1610
S'130'
p1611
aa(lp1612
S'178'
p1613
aa(lp1614
S'150'
p1615
aa(lp1616
S'16%'
p1617
aa(lp1618
S'6%'
p1619
aa(lp1620
S'-'
p1621
aa(lp1622
S'Karate Chop'
p1623
aS'Low Kick'
p1624
aa(lp1625
S'Cross Chop'
p1626
aS'Low Sweep'
p1627
aS'Night Slash'
p1628
aasg31
g32
sba(i__main__
Pokemon
p1629
(dp1630
g3
(lp1631
(lp1632
S'058'
p1633
aa(lp1634
S'Growlithe'
p1635
aa(lp1636
S'Fire'
p1637
aa(lp1638
S'110'
p1639
aa(lp1640
S'156'
p1641
aa(lp1642
S'110'
p1643
aa(lp1644
S'24%'
p1645
aa(lp1646
S'10%'
p1647
aa(lp1648
S'50'
p1649
aa(lp1650
S'Bite'
p1651
aS'Ember'
p1652
aa(lp1653
S'Body Slam'
p1654
aS'Flame Wheel'
p1655
aS'Flamethrower'
p1656
aasg31
g32
sba(i__main__
Pokemon
p1657
(dp1658
g3
(lp1659
(lp1660
S'059'
p1661
aa(lp1662
S'Arcanine'
p1663
aa(lp1664
S'Fire'
p1665
aa(lp1666
S'180'
p1667
aa(lp1668
S'230'
p1669
aa(lp1670
S'180'
p1671
aa(lp1672
S'8%'
p1673
aa(lp1674
S'6%'
p1675
aa(lp1676
S'-'
p1677
aa(lp1678
S'Bite'
p1679
aS'Fire Fang'
p1680
aa(lp1681
S'Bulldoze'
p1682
aS'Fire Blast'
p1683
aS'Flamethrower'
p1684
aasg31
g32
sba(i__main__
Pokemon
p1685
(dp1686
g3
(lp1687
(lp1688
S'060'
p1689
aa(lp1690
S'Poliwag'
p1691
aa(lp1692
S'Water'
p1693
aa(lp1694
S'80'
p1695
aa(lp1696
S'108'
p1697
aa(lp1698
S'98'
p1699
aa(lp1700
S'40%'
p1701
aa(lp1702
S'15%'
p1703
aa(lp1704
S'25'
p1705
aa(lp1706
S'Bubble'
p1707
aS'Mud Shot'
p1708
aa(lp1709
S'Body Slam'
p1710
aS'Bubble Beam'
p1711
aS'Mud Bomb'
p1712
aasg31
g32
sba(i__main__
Pokemon
p1713
(dp1714
g3
(lp1715
(lp1716
S'061'
p1717
aa(lp1718
S'Poliwhirl'
p1719
aa(lp1720
S'Water'
p1721
aa(lp1722
S'130'
p1723
aa(lp1724
S'132'
p1725
aa(lp1726
S'132'
p1727
aa(lp1728
S'20%'
p1729
aa(lp1730
S'7%'
p1731
aa(lp1732
S'100'
p1733
aa(lp1734
S'Bubble'
p1735
aS'Mud Shot'
p1736
aa(lp1737
S'Bubble Beam'
p1738
aS'Mud Bomb'
p1739
aS'Scald'
p1740
aasg31
g32
sba(i__main__
Pokemon
p1741
(dp1742
g3
(lp1743
(lp1744
S'062'
p1745
aa(lp1746
S'Poliwrath'
p1747
aa(lp1748
S'Water'
p1749
aS'Fighting'
p1750
aa(lp1751
S'180'
p1752
aa(lp1753
S'180'
p1754
aa(lp1755
S'202'
p1756
aa(lp1757
S'10%'
p1758
aa(lp1759
S'5%'
p1760
aa(lp1761
S'-'
p1762
aa(lp1763
S'Bubble'
p1764
aS'Mud Shot'
p1765
aa(lp1766
S'Hydro Pump'
p1767
aS'Ice Punch'
p1768
aS'Submission'
p1769
aasg31
g32
sba(i__main__
Pokemon
p1770
(dp1771
g3
(lp1772
(lp1773
S'063'
p1774
aa(lp1775
S'Abra'
p1776
aa(lp1777
S'Psychic'
p1778
aa(lp1779
S'50'
p1780
aa(lp1781
S'110'
p1782
aa(lp1783
S'76'
p1784
aa(lp1785
S'40%'
p1786
aa(lp1787
S'99%'
p1788
aa(lp1789
S'25'
p1790
aa(lp1791
S'Zen Headbutt'
p1792
aa(lp1793
S'Psyshock'
p1794
aS'Shadow Ball'
p1795
aS'Signal Beam'
p1796
aasg31
g32
sba(i__main__
Pokemon
p1797
(dp1798
g3
(lp1799
(lp1800
S'064'
p1801
aa(lp1802
S'Kadabra'
p1803
aa(lp1804
S'Psychic'
p1805
aa(lp1806
S'80'
p1807
aa(lp1808
S'150'
p1809
aa(lp1810
S'112'
p1811
aa(lp1812
S'20%'
p1813
aa(lp1814
S'7%'
p1815
aa(lp1816
S'100'
p1817
aa(lp1818
S'Confusion'
p1819
aS'Psycho Cut'
p1820
aa(lp1821
S'Dazzling Gleam'
p1822
aS'Psybeam'
p1823
aS'Shadow Ball'
p1824
aasg31
g32
sba(i__main__
Pokemon
p1825
(dp1826
g3
(lp1827
(lp1828
S'065'
p1829
aa(lp1830
S'Alakazam'
p1831
aa(lp1832
S'Psychic'
p1833
aa(lp1834
S'110'
p1835
aa(lp1836
S'186'
p1837
aa(lp1838
S'152'
p1839
aa(lp1840
S'10%'
p1841
aa(lp1842
S'5%'
p1843
aa(lp1844
S'-'
p1845
aa(lp1846
S'Confusion'
p1847
aS'Psycho Cut'
p1848
aa(lp1849
S'Dazzling Gleam'
p1850
aS'Psychic'
p1851
aS'Shadow Ball'
p1852
aasg31
g32
sba(i__main__
Pokemon
p1853
(dp1854
g3
(lp1855
(lp1856
S'066'
p1857
aa(lp1858
S'Machop'
p1859
aa(lp1860
S'Fighting'
p1861
aa(lp1862
S'140'
p1863
aa(lp1864
S'118'
p1865
aa(lp1866
S'96'
p1867
aa(lp1868
S'40%'
p1869
aa(lp1870
S'10%'
p1871
aa(lp1872
S'25'
p1873
aa(lp1874
S'Karate Chop'
p1875
aS'Low Kick'
p1876
aa(lp1877
S'Brick Break'
p1878
aS'Cross Chop'
p1879
aS'Low Sweep'
p1880
aasg31
g32
sba(i__main__
Pokemon
p1881
(dp1882
g3
(lp1883
(lp1884
S'067'
p1885
aa(lp1886
S'Machoke'
p1887
aa(lp1888
S'Fighting'
p1889
aa(lp1890
S'160'
p1891
aa(lp1892
S'154'
p1893
aa(lp1894
S'144'
p1895
aa(lp1896
S'20%'
p1897
aa(lp1898
S'7%'
p1899
aa(lp1900
S'100'
p1901
aa(lp1902
S'Karate Chop'
p1903
aS'Low Kick'
p1904
aa(lp1905
S'Brick Break'
p1906
aS'Cross Chop'
p1907
aS'Submission'
p1908
aasg31
g32
sba(i__main__
Pokemon
p1909
(dp1910
g3
(lp1911
(lp1912
S'068'
p1913
aa(lp1914
S'Machamp'
p1915
aa(lp1916
S'Fighting'
p1917
aa(lp1918
S'180'
p1919
aa(lp1920
S'198'
p1921
aa(lp1922
S'180'
p1923
aa(lp1924
S'10%'
p1925
aa(lp1926
S'5%'
p1927
aa(lp1928
S'-'
p1929
aa(lp1930
S'Bullet Punch'
p1931
aS'Karate Chop'
p1932
aa(lp1933
S'Cross Chop'
p1934
aS'Stone Edge'
p1935
aS'Submission'
p1936
aasg31
g32
sba(i__main__
Pokemon
p1937
(dp1938
g3
(lp1939
(lp1940
S'069'
p1941
aa(lp1942
S'Bellsprout'
p1943
aa(lp1944
S'Grass'
p1945
aS'Poison'
p1946
aa(lp1947
S'100'
p1948
aa(lp1949
S'158'
p1950
aa(lp1951
S'78'
p1952
aa(lp1953
S'40%'
p1954
aa(lp1955
S'15%'
p1956
aa(lp1957
S'25'
p1958
aa(lp1959
S'Acid'
p1960
aS'Vine Whip'
p1961
aa(lp1962
S'Power Whip'
p1963
aS'Sludge Bomb'
p1964
aS'Wrap'
p1965
aasg31
g32
sba(i__main__
Pokemon
p1966
(dp1967
g3
(lp1968
(lp1969
S'070'
p1970
aa(lp1971
S'Weepinbell'
p1972
aa(lp1973
S'Grass'
p1974
aS'Poison'
p1975
aa(lp1976
S'130'
p1977
aa(lp1978
S'190'
p1979
aa(lp1980
S'110'
p1981
aa(lp1982
S'20%'
p1983
aa(lp1984
S'7%'
p1985
aa(lp1986
S'100'
p1987
aa(lp1988
S'Acid'
p1989
aS'Razor Leaf'
p1990
aa(lp1991
S'Power Whip'
p1992
aS'Seed Bomb'
p1993
aS'Sludge Bomb'
p1994
aasg31
g32
sba(i__main__
Pokemon
p1995
(dp1996
g3
(lp1997
(lp1998
S'071'
p1999
aa(lp2000
S'Victreebel'
p2001
aa(lp2002
S'Grass'
p2003
aS'Poison'
p2004
aa(lp2005
S'160'
p2006
aa(lp2007
S'222'
p2008
aa(lp2009
S'152'
p2010
aa(lp2011
S'10%'
p2012
aa(lp2013
S'5%'
p2014
aa(lp2015
S'-'
p2016
aa(lp2017
S'Acid'
p2018
aS'Razor Leaf'
p2019
aa(lp2020
S'Leaf Blade'
p2021
aS'Sludge Bomb'
p2022
aS'Solar Beam'
p2023
aasg31
g32
sba(i__main__
Pokemon
p2024
(dp2025
g3
(lp2026
(lp2027
S'072'
p2028
aa(lp2029
S'Tentacool'
p2030
aa(lp2031
S'Water'
p2032
aS'Poison'
p2033
aa(lp2034
S'80'
p2035
aa(lp2036
S'106'
p2037
aa(lp2038
S'136'
p2039
aa(lp2040
S'40%'
p2041
aa(lp2042
S'15%'
p2043
aa(lp2044
S'50'
p2045
aa(lp2046
S'Bubble'
p2047
aS'Poison Sting'
p2048
aa(lp2049
S'Bubble Beam'
p2050
aS'Water Pulse'
p2051
aS'Wrap'
p2052
aasg31
g32
sba(i__main__
Pokemon
p2053
(dp2054
g3
(lp2055
(lp2056
S'073'
p2057
aa(lp2058
S'Tentacruel'
p2059
aa(lp2060
S'Water'
p2061
aS'Poison'
p2062
aa(lp2063
S'160'
p2064
aa(lp2065
S'170'
p2066
aa(lp2067
S'196'
p2068
aa(lp2069
S'16%'
p2070
aa(lp2071
S'7%'
p2072
aa(lp2073
S'-'
p2074
aa(lp2075
S'Acid'
p2076
aS'Poison Jab'
p2077
aa(lp2078
S'Blizzard'
p2079
aS'Hydro Pump'
p2080
aS'Sludge Wave'
p2081
aasg31
g32
sba(i__main__
Pokemon
p2082
(dp2083
g3
(lp2084
(lp2085
S'074'
p2086
aa(lp2087
S'Geodude'
p2088
aa(lp2089
S'Rock'
p2090
aS'Ground'
p2091
aa(lp2092
S'80'
p2093
aa(lp2094
S'106'
p2095
aa(lp2096
S'118'
p2097
aa(lp2098
S'40%'
p2099
aa(lp2100
S'10%'
p2101
aa(lp2102
S'25'
p2103
aa(lp2104
S'Rock Throw'
p2105
aS'Tackle'
p2106
aa(lp2107
S'Dig'
p2108
aS'Rock Slide'
p2109
aS'Rock Tomb'
p2110
aasg31
g32
sba(i__main__
Pokemon
p2111
(dp2112
g3
(lp2113
(lp2114
S'075'
p2115
aa(lp2116
S'Graveler'
p2117
aa(lp2118
S'Rock'
p2119
aS'Ground'
p2120
aa(lp2121
S'110'
p2122
aa(lp2123
S'142'
p2124
aa(lp2125
S'156'
p2126
aa(lp2127
S'20%'
p2128
aa(lp2129
S'7%'
p2130
aa(lp2131
S'100'
p2132
aa(lp2133
S'Mud Shot'
p2134
aS'Rock Throw'
p2135
aa(lp2136
S'Dig'
p2137
aS'Rock Slide'
p2138
aS'Stone Edge'
p2139
aasg31
g32
sba(i__main__
Pokemon
p2140
(dp2141
g3
(lp2142
(lp2143
S'076'
p2144
aa(lp2145
S'Golem'
p2146
aa(lp2147
S'Rock'
p2148
aS'Ground'
p2149
aa(lp2150
S'160'
p2151
aa(lp2152
S'176'
p2153
aa(lp2154
S'198'
p2155
aa(lp2156
S'10%'
p2157
aa(lp2158
S'5%'
p2159
aa(lp2160
S'-'
p2161
aa(lp2162
S'Mud Shot'
p2163
aS'Rock Throw'
p2164
aa(lp2165
S'Ancient Power'
p2166
aS'Earthquake'
p2167
aS'Stone Edge'
p2168
aasg31
g32
sba(i__main__
Pokemon
p2169
(dp2170
g3
(lp2171
(lp2172
S'077'
p2173
aa(lp2174
S'Ponyta'
p2175
aa(lp2176
S'Fire'
p2177
aa(lp2178
S'100'
p2179
aa(lp2180
S'168'
p2181
aa(lp2182
S'138'
p2183
aa(lp2184
S'32%'
p2185
aa(lp2186
S'10%'
p2187
aa(lp2188
S'50'
p2189
aa(lp2190
S'Ember'
p2191
aS'Tackle'
p2192
aa(lp2193
S'Fire Blast'
p2194
aS'Flame Charge'
p2195
aS'Flame Wheel'
p2196
aasg31
g32
sba(i__main__
Pokemon
p2197
(dp2198
g3
(lp2199
(lp2200
S'078'
p2201
aa(lp2202
S'Rapidash'
p2203
aa(lp2204
S'Fire'
p2205
aa(lp2206
S'130'
p2207
aa(lp2208
S'200'
p2209
aa(lp2210
S'170'
p2211
aa(lp2212
S'12%'
p2213
aa(lp2214
S'6%'
p2215
aa(lp2216
S'-'
p2217
aa(lp2218
S'Ember'
p2219
aS'Low Kick'
p2220
aa(lp2221
S'Drill Run'
p2222
aS'Fire Blast'
p2223
aS'Heat Wave'
p2224
aasg31
g32
sba(i__main__
Pokemon
p2225
(dp2226
g3
(lp2227
(lp2228
S'079'
p2229
aa(lp2230
S'Slowpoke'
p2231
aa(lp2232
S'Water'
p2233
aS'Psychic'
p2234
aa(lp2235
S'180'
p2236
aa(lp2237
S'110'
p2238
aa(lp2239
S'110'
p2240
aa(lp2241
S'40%'
p2242
aa(lp2243
S'10%'
p2244
aa(lp2245
S'50'
p2246
aa(lp2247
S'Confusion'
p2248
aS'Water Gun'
p2249
aa(lp2250
S'Psychic'
p2251
aS'Psyshock'
p2252
aS'Water Pulse'
p2253
aasg31
g32
sba(i__main__
Pokemon
p2254
(dp2255
g3
(lp2256
(lp2257
S'080'
p2258
aa(lp2259
S'Slowbro'
p2260
aa(lp2261
S'Water'
p2262
aS'Psychic'
p2263
aa(lp2264
S'190'
p2265
aa(lp2266
S'184'
p2267
aa(lp2268
S'198'
p2269
aa(lp2270
S'16%'
p2271
aa(lp2272
S'6%'
p2273
aa(lp2274
S'-'
p2275
aa(lp2276
S'Confusion'
p2277
aS'Water Gun'
p2278
aa(lp2279
S'Ice Beam'
p2280
aS'Psychic'
p2281
aS'Water Pulse'
p2282
aasg31
g32
sba(i__main__
Pokemon
p2283
(dp2284
g3
(lp2285
(lp2286
S'081'
p2287
aa(lp2288
S'Magnemite'
p2289
aa(lp2290
S'Electric'
p2291
aS'Steel'
p2292
aa(lp2293
S'50'
p2294
aa(lp2295
S'128'
p2296
aa(lp2297
S'138'
p2298
aa(lp2299
S'40%'
p2300
aa(lp2301
S'10%'
p2302
aa(lp2303
S'50'
p2304
aa(lp2305
S'Spark'
p2306
aS'Thunder Shock'
p2307
aa(lp2308
S'Discharge'
p2309
aS'Magnet Bomb'
p2310
aS'Thunderbolt'
p2311
aasg31
g32
sba(i__main__
Pokemon
p2312
(dp2313
g3
(lp2314
(lp2315
S'082'
p2316
aa(lp2317
S'Magneton'
p2318
aa(lp2319
S'Electric'
p2320
aS'Steel'
p2321
aa(lp2322
S'100'
p2323
aa(lp2324
S'186'
p2325
aa(lp2326
S'180'
p2327
aa(lp2328
S'16%'
p2329
aa(lp2330
S'6%'
p2331
aa(lp2332
S'-'
p2333
aa(lp2334
S'Spark'
p2335
aS'Thunder Shock'
p2336
aa(lp2337
S'Discharge'
p2338
aS'Flash Cannon'
p2339
aS'Magnet Bomb'
p2340
aasg31
g32
sba(i__main__
Pokemon
p2341
(dp2342
g3
(lp2343
(lp2344
S'083'
p2345
aa(lp2346
S"Farfetch'd"
p2347
aa(lp2348
S'Normal'
p2349
aS'Flying'
p2350
aa(lp2351
S'104'
p2352
aa(lp2353
S'138'
p2354
aa(lp2355
S'132'
p2356
aa(lp2357
S'24%'
p2358
aa(lp2359
S'9%'
p2360
aa(lp2361
S'-'
p2362
aa(lp2363
S'Cut'
p2364
aS'Fury Cutter'
p2365
aa(lp2366
S'Aerial Ace'
p2367
aS'Air Cutter'
p2368
aS'Leaf Blade'
p2369
aasg31
g32
sba(i__main__
Pokemon
p2370
(dp2371
g3
(lp2372
(lp2373
S'084'
p2374
aa(lp2375
S'Doduo'
p2376
aa(lp2377
S'Normal'
p2378
aS'Flying'
p2379
aa(lp2380
S'70'
p2381
aa(lp2382
S'126'
p2383
aa(lp2384
S'96'
p2385
aa(lp2386
S'40%'
p2387
aa(lp2388
S'10%'
p2389
aa(lp2390
S'50'
p2391
aa(lp2392
S'Peck'
p2393
aS'Quick Attack'
p2394
aa(lp2395
S'Aerial Ace'
p2396
aS'Drill Peck'
p2397
aS'Swift'
p2398
aasg31
g32
sba(i__main__
Pokemon
p2399
(dp2400
g3
(lp2401
(lp2402
S'085'
p2403
aa(lp2404
S'Dodrio'
p2405
aa(lp2406
S'Normal'
p2407
aS'Flying'
p2408
aa(lp2409
S'120'
p2410
aa(lp2411
S'182'
p2412
aa(lp2413
S'150'
p2414
aa(lp2415
S'16%'
p2416
aa(lp2417
S'6%'
p2418
aa(lp2419
S'-'
p2420
aa(lp2421
S'Feint Attack'
p2422
aS'Steel Wing'
p2423
aa(lp2424
S'Aerial Ace'
p2425
aS'Air Cutter'
p2426
aS'Drill Peck'
p2427
aasg31
g32
sba(i__main__
Pokemon
p2428
(dp2429
g3
(lp2430
(lp2431
S'086'
p2432
aa(lp2433
S'Seel'
p2434
aa(lp2435
S'Water'
p2436
aa(lp2437
S'130'
p2438
aa(lp2439
S'104'
p2440
aa(lp2441
S'138'
p2442
aa(lp2443
S'40%'
p2444
aa(lp2445
S'9%'
p2446
aa(lp2447
S'50'
p2448
aa(lp2449
S'Ice Shard'
p2450
aS'Water Gun'
p2451
aa(lp2452
S'Aqua Jet'
p2453
aS'Aqua Tail'
p2454
aS'Icy Wind'
p2455
aasg31
g32
sba(i__main__
Pokemon
p2456
(dp2457
g3
(lp2458
(lp2459
S'087'
p2460
aa(lp2461
S'Dewgong'
p2462
aa(lp2463
S'Water'
p2464
aS'Ice'
p2465
aa(lp2466
S'180'
p2467
aa(lp2468
S'156'
p2469
aa(lp2470
S'192'
p2471
aa(lp2472
S'16%'
p2473
aa(lp2474
S'6%'
p2475
aa(lp2476
S'-'
p2477
aa(lp2478
S'Frost Breath'
p2479
aS'Ice Shard'
p2480
aa(lp2481
S'Aqua Jet'
p2482
aS'Blizzard'
p2483
aS'Icy Wind'
p2484
aasg31
g32
sba(i__main__
Pokemon
p2485
(dp2486
g3
(lp2487
(lp2488
S'088'
p2489
aa(lp2490
S'Grimer'
p2491
aa(lp2492
S'Poison'
p2493
aa(lp2494
S'160'
p2495
aa(lp2496
S'124'
p2497
aa(lp2498
S'110'
p2499
aa(lp2500
S'40%'
p2501
aa(lp2502
S'10%'
p2503
aa(lp2504
S'50'
p2505
aa(lp2506
S'Acid'
p2507
aS'Mud-Slap'
p2508
aa(lp2509
S'Mud Bomb'
p2510
aS'Sludge'
p2511
aS'Sludge Bomb'
p2512
aasg31
g32
sba(i__main__
Pokemon
p2513
(dp2514
g3
(lp2515
(lp2516
S'089'
p2517
aa(lp2518
S'Muk'
p2519
aa(lp2520
S'Poison'
p2521
aa(lp2522
S'210'
p2523
aa(lp2524
S'180'
p2525
aa(lp2526
S'188'
p2527
aa(lp2528
S'16%'
p2529
aa(lp2530
S'6%'
p2531
aa(lp2532
S'-'
p2533
aa(lp2534
S'Acid'
p2535
aS'Poison Jab'
p2536
aa(lp2537
S'Dark Pulse'
p2538
aS'Gunk Shot'
p2539
aS'Sludge Wave'
p2540
aasg31
g32
sba(i__main__
Pokemon
p2541
(dp2542
g3
(lp2543
(lp2544
S'090'
p2545
aa(lp2546
S'Shellder'
p2547
aa(lp2548
S'Water'
p2549
aa(lp2550
S'60'
p2551
aa(lp2552
S'120'
p2553
aa(lp2554
S'112'
p2555
aa(lp2556
S'40%'
p2557
aa(lp2558
S'10%'
p2559
aa(lp2560
S'50'
p2561
aa(lp2562
S'Ice Shard'
p2563
aS'Tackle'
p2564
aa(lp2565
S'Bubble Beam'
p2566
aS'Icy Wind'
p2567
aS'Water Pulse'
p2568
aasg31
g32
sba(i__main__
Pokemon
p2569
(dp2570
g3
(lp2571
(lp2572
S'091'
p2573
aa(lp2574
S'Cloyster'
p2575
aa(lp2576
S'Water'
p2577
aS'Ice'
p2578
aa(lp2579
S'100'
p2580
aa(lp2581
S'196'
p2582
aa(lp2583
S'196'
p2584
aa(lp2585
S'16%'
p2586
aa(lp2587
S'6%'
p2588
aa(lp2589
S'-'
p2590
aa(lp2591
S'Frost Breath'
p2592
aS'Ice Shard'
p2593
aa(lp2594
S'Blizzard'
p2595
aS'Hydro Pump'
p2596
aS'Icy Wind'
p2597
aasg31
g32
sba(i__main__
Pokemon
p2598
(dp2599
g3
(lp2600
(lp2601
S'092'
p2602
aa(lp2603
S'Gastly'
p2604
aa(lp2605
S'Ghost'
p2606
aS'Poison'
p2607
aa(lp2608
S'60'
p2609
aa(lp2610
S'136'
p2611
aa(lp2612
S'82'
p2613
aa(lp2614
S'32%'
p2615
aa(lp2616
S'10%'
p2617
aa(lp2618
S'25'
p2619
aa(lp2620
S'Lick'
p2621
aS'Sucker Punch'
p2622
aa(lp2623
S'Dark Pulse'
p2624
aS'Ominous Wind'
p2625
aS'Sludge Bomb'
p2626
aasg31
g32
sba(i__main__
Pokemon
p2627
(dp2628
g3
(lp2629
(lp2630
S'093'
p2631
aa(lp2632
S'Haunter'
p2633
aa(lp2634
S'Ghost'
p2635
aS'Poison'
p2636
aa(lp2637
S'90'
p2638
aa(lp2639
S'172'
p2640
aa(lp2641
S'118'
p2642
aa(lp2643
S'16%'
p2644
aa(lp2645
S'7%'
p2646
aa(lp2647
S'100'
p2648
aa(lp2649
S'Lick'
p2650
aS'Shadow Claw'
p2651
aa(lp2652
S'Dark Pulse'
p2653
aS'Shadow Ball'
p2654
aS'Sludge Bomb'
p2655
aasg31
g32
sba(i__main__
Pokemon
p2656
(dp2657
g3
(lp2658
(lp2659
S'094'
p2660
aa(lp2661
S'Gengar'
p2662
aa(lp2663
S'Ghost'
p2664
aS'Poison'
p2665
aa(lp2666
S'120'
p2667
aa(lp2668
S'204'
p2669
aa(lp2670
S'156'
p2671
aa(lp2672
S'8%'
p2673
aa(lp2674
S'5%'
p2675
aa(lp2676
S'-'
p2677
aa(lp2678
S'Shadow Claw'
p2679
aS'Sucker Punch'
p2680
aa(lp2681
S'Dark Pulse'
p2682
aS'Shadow Ball'
p2683
aS'Sludge Wave'
p2684
aasg31
g32
sba(i__main__
Pokemon
p2685
(dp2686
g3
(lp2687
(lp2688
S'095'
p2689
aa(lp2690
S'Onix'
p2691
aa(lp2692
S'Rock'
p2693
aS'Ground'
p2694
aa(lp2695
S'70'
p2696
aa(lp2697
S'90'
p2698
aa(lp2699
S'186'
p2700
aa(lp2701
S'16%'
p2702
aa(lp2703
S'9%'
p2704
aa(lp2705
S'-'
p2706
aa(lp2707
S'Rock Throw'
p2708
aS'Tackle'
p2709
aa(lp2710
S'Iron Head'
p2711
aS'Rock Slide'
p2712
aS'Stone Edge'
p2713
aasg31
g32
sba(i__main__
Pokemon
p2714
(dp2715
g3
(lp2716
(lp2717
S'096'
p2718
aa(lp2719
S'Drowzee'
p2720
aa(lp2721
S'Psychic'
p2722
aa(lp2723
S'120'
p2724
aa(lp2725
S'104'
p2726
aa(lp2727
S'140'
p2728
aa(lp2729
S'40%'
p2730
aa(lp2731
S'10%'
p2732
aa(lp2733
S'50'
p2734
aa(lp2735
S'Confusion'
p2736
aS'Pound'
p2737
aa(lp2738
S'Psybeam'
p2739
aS'Psychic'
p2740
aS'Psyshock'
p2741
aasg31
g32
sba(i__main__
Pokemon
p2742
(dp2743
g3
(lp2744
(lp2745
S'097'
p2746
aa(lp2747
S'Hypno'
p2748
aa(lp2749
S'Psychic'
p2750
aa(lp2751
S'170'
p2752
aa(lp2753
S'162'
p2754
aa(lp2755
S'196'
p2756
aa(lp2757
S'16%'
p2758
aa(lp2759
S'6%'
p2760
aa(lp2761
S'-'
p2762
aa(lp2763
S'Confusion'
p2764
aS'Zen Headbutt'
p2765
aa(lp2766
S'Psychic'
p2767
aS'Psyshock'
p2768
aS'Shadow Ball'
p2769
aasg31
g32
sba(i__main__
Pokemon
p2770
(dp2771
g3
(lp2772
(lp2773
S'098'
p2774
aa(lp2775
S'Krabby'
p2776
aa(lp2777
S'Water'
p2778
aa(lp2779
S'60'
p2780
aa(lp2781
S'116'
p2782
aa(lp2783
S'110'
p2784
aa(lp2785
S'40%'
p2786
aa(lp2787
S'15%'
p2788
aa(lp2789
S'50'
p2790
aa(lp2791
S'Bubble'
p2792
aS'Mud Shot'
p2793
aa(lp2794
S'Bubble Beam'
p2795
aS'Vice Grip'
p2796
aS'Water Pulse'
p2797
aasg31
g32
sba(i__main__
Pokemon
p2798
(dp2799
g3
(lp2800
(lp2801
S'099'
p2802
aa(lp2803
S'Kingler'
p2804
aa(lp2805
S'Water'
p2806
aa(lp2807
S'110'
p2808
aa(lp2809
S'178'
p2810
aa(lp2811
S'168'
p2812
aa(lp2813
S'16%'
p2814
aa(lp2815
S'7%'
p2816
aa(lp2817
S'-'
p2818
aa(lp2819
S'Metal Claw'
p2820
aS'Mud Shot'
p2821
aa(lp2822
S'Vice Grip'
p2823
aS'Water Pulse'
p2824
aS'X-Scissor'
p2825
aasg31
g32
sba(i__main__
Pokemon
p2826
(dp2827
g3
(lp2828
(lp2829
S'100'
p2830
aa(lp2831
S'Voltorb'
p2832
aa(lp2833
S'Electric'
p2834
aa(lp2835
S'80'
p2836
aa(lp2837
S'102'
p2838
aa(lp2839
S'124'
p2840
aa(lp2841
S'40%'
p2842
aa(lp2843
S'10%'
p2844
aa(lp2845
S'50'
p2846
aa(lp2847
S'Spark'
p2848
aS'Tackle'
p2849
aa(lp2850
S'Discharge'
p2851
aS'Signal Beam'
p2852
aS'Thunderbolt'
p2853
aasg31
g32
sba(i__main__
Pokemon
p2854
(dp2855
g3
(lp2856
(lp2857
S'101'
p2858
aa(lp2859
S'Electrode'
p2860
aa(lp2861
S'Electric'
p2862
aa(lp2863
S'120'
p2864
aa(lp2865
S'150'
p2866
aa(lp2867
S'174'
p2868
aa(lp2869
S'16%'
p2870
aa(lp2871
S'6%'
p2872
aa(lp2873
S'-'
p2874
aa(lp2875
S'Spark'
p2876
aS'Tackle'
p2877
aa(lp2878
S'Discharge'
p2879
aS'Hyper Beam'
p2880
aS'Thunderbolt'
p2881
aasg31
g32
sba(i__main__
Pokemon
p2882
(dp2883
g3
(lp2884
(lp2885
S'102'
p2886
aa(lp2887
S'Exeggcute'
p2888
aa(lp2889
S'Grass'
p2890
aS'Psychic'
p2891
aa(lp2892
S'120'
p2893
aa(lp2894
S'110'
p2895
aa(lp2896
S'132'
p2897
aa(lp2898
S'40%'
p2899
aa(lp2900
S'10%'
p2901
aa(lp2902
S'50'
p2903
aa(lp2904
S'Confusion'
p2905
aa(lp2906
S'Ancient Power'
p2907
aS'Psychic'
p2908
aS'Seed Bomb'
p2909
aasg31
g32
sba(i__main__
Pokemon
p2910
(dp2911
g3
(lp2912
(lp2913
S'103'
p2914
aa(lp2915
S'Exeggutor'
p2916
aa(lp2917
S'Grass'
p2918
aS'Psychic'
p2919
aa(lp2920
S'190'
p2921
aa(lp2922
S'232'
p2923
aa(lp2924
S'164'
p2925
aa(lp2926
S'16%'
p2927
aa(lp2928
S'6%'
p2929
aa(lp2930
S'-'
p2931
aa(lp2932
S'Confusion'
p2933
aS'Zen Headbutt'
p2934
aa(lp2935
S'Psychic'
p2936
aS'Seed Bomb'
p2937
aS'Solar Beam'
p2938
aasg31
g32
sba(i__main__
Pokemon
p2939
(dp2940
g3
(lp2941
(lp2942
S'104'
p2943
aa(lp2944
S'Cubone'
p2945
aa(lp2946
S'Ground'
p2947
aa(lp2948
S'100'
p2949
aa(lp2950
S'102'
p2951
aa(lp2952
S'150'
p2953
aa(lp2954
S'32%'
p2955
aa(lp2956
S'10%'
p2957
aa(lp2958
S'50'
p2959
aa(lp2960
S'Mud-Slap'
p2961
aS'Rock Smash'
p2962
aa(lp2963
S'Bone Club'
p2964
aS'Bulldoze'
p2965
aS'Dig'
p2966
aasg31
g32
sba(i__main__
Pokemon
p2967
(dp2968
g3
(lp2969
(lp2970
S'105'
p2971
aa(lp2972
S'Marowak'
p2973
aa(lp2974
S'Ground'
p2975
aa(lp2976
S'120'
p2977
aa(lp2978
S'140'
p2979
aa(lp2980
S'202'
p2981
aa(lp2982
S'12%'
p2983
aa(lp2984
S'6%'
p2985
aa(lp2986
S'-'
p2987
aa(lp2988
S'Mud-Slap'
p2989
aS'Rock Smash'
p2990
aa(lp2991
S'Bone Club'
p2992
aS'Dig'
p2993
aS'Earthquake'
p2994
aasg31
g32
sba(i__main__
Pokemon
p2995
(dp2996
g3
(lp2997
(lp2998
S'106'
p2999
aa(lp3000
S'Hitmonlee'
p3001
aa(lp3002
S'Fighting'
p3003
aa(lp3004
S'100'
p3005
aa(lp3006
S'148'
p3007
aa(lp3008
S'172'
p3009
aa(lp3010
S'16%'
p3011
aa(lp3012
S'9%'
p3013
aa(lp3014
S'-'
p3015
aa(lp3016
S'Low Kick'
p3017
aS'Rock Smash'
p3018
aa(lp3019
S'Low Sweep'
p3020
aS'Stomp'
p3021
aS'Stone Edge'
p3022
aasg31
g32
sba(i__main__
Pokemon
p3023
(dp3024
g3
(lp3025
(lp3026
S'107'
p3027
aa(lp3028
S'Hitmonchan'
p3029
aa(lp3030
S'Fighting'
p3031
aa(lp3032
S'100'
p3033
aa(lp3034
S'138'
p3035
aa(lp3036
S'204'
p3037
aa(lp3038
S'16%'
p3039
aa(lp3040
S'9%'
p3041
aa(lp3042
S'-'
p3043
aa(lp3044
S'Bullet Punch'
p3045
aS'Rock Smash'
p3046
aa(lp3047
S'Brick Break'
p3048
aS'Fire Punch'
p3049
aS'Ice Punch'
p3050
aS'Thunder Punch'
p3051
aasg31
g32
sba(i__main__
Pokemon
p3052
(dp3053
g3
(lp3054
(lp3055
S'108'
p3056
aa(lp3057
S'Lickitung'
p3058
aa(lp3059
S'Normal'
p3060
aa(lp3061
S'180'
p3062
aa(lp3063
S'126'
p3064
aa(lp3065
S'160'
p3066
aa(lp3067
S'16%'
p3068
aa(lp3069
S'9%'
p3070
aa(lp3071
S'-'
p3072
aa(lp3073
S'Lick'
p3074
aS'Zen Headbutt'
p3075
aa(lp3076
S'Hyper Beam'
p3077
aS'Power Whip'
p3078
aS'Stomp'
p3079
aasg31
g32
sba(i__main__
Pokemon
p3080
(dp3081
g3
(lp3082
(lp3083
S'109'
p3084
aa(lp3085
S'Koffing'
p3086
aa(lp3087
S'Poison'
p3088
aa(lp3089
S'80'
p3090
aa(lp3091
S'136'
p3092
aa(lp3093
S'142'
p3094
aa(lp3095
S'40%'
p3096
aa(lp3097
S'10%'
p3098
aa(lp3099
S'50'
p3100
aa(lp3101
S'Acid'
p3102
aS'Tackle'
p3103
aa(lp3104
S'Dark Pulse'
p3105
aS'Sludge'
p3106
aS'Sludge Bomb'
p3107
aasg31
g32
sba(i__main__
Pokemon
p3108
(dp3109
g3
(lp3110
(lp3111
S'110'
p3112
aa(lp3113
S'Weezing'
p3114
aa(lp3115
S'Poison'
p3116
aa(lp3117
S'130'
p3118
aa(lp3119
S'190'
p3120
aa(lp3121
S'198'
p3122
aa(lp3123
S'16%'
p3124
aa(lp3125
S'6%'
p3126
aa(lp3127
S'-'
p3128
aa(lp3129
S'Acid'
p3130
aS'Tackle'
p3131
aa(lp3132
S'Dark Pulse'
p3133
aS'Shadow Ball'
p3134
aS'Sludge Bomb'
p3135
aasg31
g32
sba(i__main__
Pokemon
p3136
(dp3137
g3
(lp3138
(lp3139
S'111'
p3140
aa(lp3141
S'Rhyhorn'
p3142
aa(lp3143
S'Ground'
p3144
aS'Rock'
p3145
aa(lp3146
S'160'
p3147
aa(lp3148
S'110'
p3149
aa(lp3150
S'116'
p3151
aa(lp3152
S'40%'
p3153
aa(lp3154
S'10%'
p3155
aa(lp3156
S'50'
p3157
aa(lp3158
S'Mud-Slap'
p3159
aS'Rock Smash'
p3160
aa(lp3161
S'Bulldoze'
p3162
aS'Horn Attack'
p3163
aS'Stomp'
p3164
aasg31
g32
sba(i__main__
Pokemon
p3165
(dp3166
g3
(lp3167
(lp3168
S'112'
p3169
aa(lp3170
S'Rhydon'
p3171
aa(lp3172
S'Ground'
p3173
aS'Rock'
p3174
aa(lp3175
S'210'
p3176
aa(lp3177
S'166'
p3178
aa(lp3179
S'160'
p3180
aa(lp3181
S'16%'
p3182
aa(lp3183
S'6%'
p3184
aa(lp3185
S'-'
p3186
aa(lp3187
S'Mud-Slap'
p3188
aS'Rock Smash'
p3189
aa(lp3190
S'Earthquake'
p3191
aS'Megahorn'
p3192
aS'Stone Edge'
p3193
aasg31
g32
sba(i__main__
Pokemon
p3194
(dp3195
g3
(lp3196
(lp3197
S'113'
p3198
aa(lp3199
S'Chansey'
p3200
aa(lp3201
S'Normal'
p3202
aa(lp3203
S'500'
p3204
aa(lp3205
S'40'
p3206
aa(lp3207
S'60'
p3208
aa(lp3209
S'16%'
p3210
aa(lp3211
S'9%'
p3212
aa(lp3213
S'-'
p3214
aa(lp3215
S'Pound'
p3216
aS'Zen Headbutt'
p3217
aa(lp3218
S'Dazzling Gleam'
p3219
aS'Psybeam'
p3220
aS'Psychic'
p3221
aasg31
g32
sba(i__main__
Pokemon
p3222
(dp3223
g3
(lp3224
(lp3225
S'114'
p3226
aa(lp3227
S'Tangela'
p3228
aa(lp3229
S'Grass'
p3230
aa(lp3231
S'130'
p3232
aa(lp3233
S'164'
p3234
aa(lp3235
S'152'
p3236
aa(lp3237
S'32%'
p3238
aa(lp3239
S'9%'
p3240
aa(lp3241
S'-'
p3242
aa(lp3243
S'Vine Whip'
p3244
aa(lp3245
S'Power Whip'
p3246
aS'Sludge Bomb'
p3247
aS'Solar Beam'
p3248
aasg31
g32
sba(i__main__
Pokemon
p3249
(dp3250
g3
(lp3251
(lp3252
S'115'
p3253
aa(lp3254
S'Kangaskhan'
p3255
aa(lp3256
S'Normal'
p3257
aa(lp3258
S'210'
p3259
aa(lp3260
S'142'
p3261
aa(lp3262
S'178'
p3263
aa(lp3264
S'16%'
p3265
aa(lp3266
S'9%'
p3267
aa(lp3268
S'-'
p3269
aa(lp3270
S'Low Kick'
p3271
aS'Mud-Slap'
p3272
aa(lp3273
S'Brick Break'
p3274
aS'Earthquake'
p3275
aS'Stomp'
p3276
aasg31
g32
sba(i__main__
Pokemon
p3277
(dp3278
g3
(lp3279
(lp3280
S'116'
p3281
aa(lp3282
S'Horsea'
p3283
aa(lp3284
S'Water'
p3285
aa(lp3286
S'60'
p3287
aa(lp3288
S'122'
p3289
aa(lp3290
S'100'
p3291
aa(lp3292
S'40%'
p3293
aa(lp3294
S'10%'
p3295
aa(lp3296
S'50'
p3297
aa(lp3298
S'Bubble'
p3299
aS'Water Gun'
p3300
aa(lp3301
S'Bubble Beam'
p3302
aS'Dragon Pulse'
p3303
aS'Flash Cannon'
p3304
aasg31
g32
sba(i__main__
Pokemon
p3305
(dp3306
g3
(lp3307
(lp3308
S'117'
p3309
aa(lp3310
S'Seadra'
p3311
aa(lp3312
S'Water'
p3313
aa(lp3314
S'110'
p3315
aa(lp3316
S'176'
p3317
aa(lp3318
S'150'
p3319
aa(lp3320
S'16%'
p3321
aa(lp3322
S'6%'
p3323
aa(lp3324
S'-'
p3325
aa(lp3326
S'Dragon Breath'
p3327
aS'Water Gun'
p3328
aa(lp3329
S'Blizzard'
p3330
aS'Dragon Pulse'
p3331
aS'Hydro Pump'
p3332
aasg31
g32
sba(i__main__
Pokemon
p3333
(dp3334
g3
(lp3335
(lp3336
S'118'
p3337
aa(lp3338
S'Goldeen'
p3339
aa(lp3340
S'Water'
p3341
aa(lp3342
S'90'
p3343
aa(lp3344
S'112'
p3345
aa(lp3346
S'126'
p3347
aa(lp3348
S'40%'
p3349
aa(lp3350
S'15%'
p3351
aa(lp3352
S'50'
p3353
aa(lp3354
S'Mud Shot'
p3355
aS'Peck'
p3356
aa(lp3357
S'Aqua Tail'
p3358
aS'Horn Attack'
p3359
aS'Water Pulse'
p3360
aasg31
g32
sba(i__main__
Pokemon
p3361
(dp3362
g3
(lp3363
(lp3364
S'119'
p3365
aa(lp3366
S'Seaking'
p3367
aa(lp3368
S'Water'
p3369
aa(lp3370
S'160'
p3371
aa(lp3372
S'172'
p3373
aa(lp3374
S'160'
p3375
aa(lp3376
S'16%'
p3377
aa(lp3378
S'7%'
p3379
aa(lp3380
S'-'
p3381
aa(lp3382
S'Peck'
p3383
aS'Poison Jab'
p3384
aa(lp3385
S'Drill Run'
p3386
aS'Icy Wind'
p3387
aS'Megahorn'
p3388
aasg31
g32
sba(i__main__
Pokemon
p3389
(dp3390
g3
(lp3391
(lp3392
S'120'
p3393
aa(lp3394
S'Staryu'
p3395
aa(lp3396
S'Water'
p3397
aa(lp3398
S'60'
p3399
aa(lp3400
S'130'
p3401
aa(lp3402
S'128'
p3403
aa(lp3404
S'40%'
p3405
aa(lp3406
S'15%'
p3407
aa(lp3408
S'50'
p3409
aa(lp3410
S'Quick Attack'
p3411
aS'Water Gun'
p3412
aa(lp3413
S'Bubble Beam'
p3414
aS'Power Gem'
p3415
aS'Swift'
p3416
aasg31
g32
sba(i__main__
Pokemon
p3417
(dp3418
g3
(lp3419
(lp3420
S'121'
p3421
aa(lp3422
S'Starmie'
p3423
aa(lp3424
S'Water'
p3425
aS'Psychic'
p3426
aa(lp3427
S'120'
p3428
aa(lp3429
S'194'
p3430
aa(lp3431
S'192'
p3432
aa(lp3433
S'16%'
p3434
aa(lp3435
S'6%'
p3436
aa(lp3437
S'-'
p3438
aa(lp3439
S'Quick Attack'
p3440
aS'Water Gun'
p3441
aa(lp3442
S'Hydro Pump'
p3443
aS'Power Gem'
p3444
aS'Psybeam'
p3445
aasg31
g32
sba(i__main__
Pokemon
p3446
(dp3447
g3
(lp3448
(lp3449
S'122'
p3450
aa(lp3451
S'Mr. Mime'
p3452
aa(lp3453
S'Psychic'
p3454
aS'Fairy'
p3455
aa(lp3456
S'80'
p3457
aa(lp3458
S'154'
p3459
aa(lp3460
S'196'
p3461
aa(lp3462
S'24%'
p3463
aa(lp3464
S'9%'
p3465
aa(lp3466
S'-'
p3467
aa(lp3468
S'Confusion'
p3469
aS'Zen Headbutt'
p3470
aa(lp3471
S'Psybeam'
p3472
aS'Psychic'
p3473
aS'Shadow Ball'
p3474
aasg31
g32
sba(i__main__
Pokemon
p3475
(dp3476
g3
(lp3477
(lp3478
S'123'
p3479
aa(lp3480
S'Scyther'
p3481
aa(lp3482
S'Bug'
p3483
aS'Flying'
p3484
aa(lp3485
S'140'
p3486
aa(lp3487
S'176'
p3488
aa(lp3489
S'180'
p3490
aa(lp3491
S'24%'
p3492
aa(lp3493
S'9%'
p3494
aa(lp3495
S'-'
p3496
aa(lp3497
S'Fury Cutter'
p3498
aS'Steel Wing'
p3499
aa(lp3500
S'Bug Buzz'
p3501
aS'Night Slash'
p3502
aS'X-Scissor'
p3503
aasg31
g32
sba(i__main__
Pokemon
p3504
(dp3505
g3
(lp3506
(lp3507
S'124'
p3508
aa(lp3509
S'Jynx'
p3510
aa(lp3511
S'Ice'
p3512
aS'Psychic'
p3513
aa(lp3514
S'130'
p3515
aa(lp3516
S'172'
p3517
aa(lp3518
S'134'
p3519
aa(lp3520
S'24%'
p3521
aa(lp3522
S'9%'
p3523
aa(lp3524
S'-'
p3525
aa(lp3526
S'Frost Breath'
p3527
aS'Pound'
p3528
aa(lp3529
S'Draining Kiss'
p3530
aS'Ice Punch'
p3531
aS'Psyshock'
p3532
aasg31
g32
sba(i__main__
Pokemon
p3533
(dp3534
g3
(lp3535
(lp3536
S'125'
p3537
aa(lp3538
S'Electabuzz'
p3539
aa(lp3540
S'Electric'
p3541
aa(lp3542
S'130'
p3543
aa(lp3544
S'198'
p3545
aa(lp3546
S'160'
p3547
aa(lp3548
S'24%'
p3549
aa(lp3550
S'9%'
p3551
aa(lp3552
S'-'
p3553
aa(lp3554
S'Low Kick'
p3555
aS'Thunder Shock'
p3556
aa(lp3557
S'Thunder'
p3558
aS'Thunder Punch'
p3559
aS'Thunderbolt'
p3560
aasg31
g32
sba(i__main__
Pokemon
p3561
(dp3562
g3
(lp3563
(lp3564
S'126'
p3565
aa(lp3566
S'Magmar'
p3567
aa(lp3568
S'Fire'
p3569
aa(lp3570
S'130'
p3571
aa(lp3572
S'214'
p3573
aa(lp3574
S'158'
p3575
aa(lp3576
S'24%'
p3577
aa(lp3578
S'9%'
p3579
aa(lp3580
S'-'
p3581
aa(lp3582
S'Ember'
p3583
aS'Karate Chop'
p3584
aa(lp3585
S'Fire Blast'
p3586
aS'Fire Punch'
p3587
aS'Flamethrower'
p3588
aasg31
g32
sba(i__main__
Pokemon
p3589
(dp3590
g3
(lp3591
(lp3592
S'127'
p3593
aa(lp3594
S'Pinsir'
p3595
aa(lp3596
S'Bug'
p3597
aa(lp3598
S'130'
p3599
aa(lp3600
S'184'
p3601
aa(lp3602
S'186'
p3603
aa(lp3604
S'24%'
p3605
aa(lp3606
S'9%'
p3607
aa(lp3608
S'-'
p3609
aa(lp3610
S'Fury Cutter'
p3611
aS'Rock Smash'
p3612
aa(lp3613
S'Submission'
p3614
aS'Vice Grip'
p3615
aS'X-Scissor'
p3616
aasg31
g32
sba(i__main__
Pokemon
p3617
(dp3618
g3
(lp3619
(lp3620
S'128'
p3621
aa(lp3622
S'Tauros'
p3623
aa(lp3624
S'Normal'
p3625
aa(lp3626
S'150'
p3627
aa(lp3628
S'148'
p3629
aa(lp3630
S'184'
p3631
aa(lp3632
S'24%'
p3633
aa(lp3634
S'9%'
p3635
aa(lp3636
S'-'
p3637
aa(lp3638
S'Tackle'
p3639
aS'Zen Headbutt'
p3640
aa(lp3641
S'Earthquake'
p3642
aS'Horn Attack'
p3643
aS'Iron Head'
p3644
aasg31
g32
sba(i__main__
Pokemon
p3645
(dp3646
g3
(lp3647
(lp3648
S'129'
p3649
aa(lp3650
S'Magikarp'
p3651
aa(lp3652
S'Water'
p3653
aa(lp3654
S'40'
p3655
aa(lp3656
S'42'
p3657
aa(lp3658
S'84'
p3659
aa(lp3660
S'56%'
p3661
aa(lp3662
S'15%'
p3663
aa(lp3664
S'400'
p3665
aa(lp3666
S'Splash'
p3667
aa(lp3668
S'Struggle'
p3669
aasg31
g32
sba(i__main__
Pokemon
p3670
(dp3671
g3
(lp3672
(lp3673
S'130'
p3674
aa(lp3675
S'Gyarados'
p3676
aa(lp3677
S'Water'
p3678
aS'Flying'
p3679
aa(lp3680
S'190'
p3681
aa(lp3682
S'192'
p3683
aa(lp3684
S'196'
p3685
aa(lp3686
S'8%'
p3687
aa(lp3688
S'7%'
p3689
aa(lp3690
S'-'
p3691
aa(lp3692
S'Bite'
p3693
aS'Dragon Breath'
p3694
aa(lp3695
S'Dragon Pulse'
p3696
aS'Hydro Pump'
p3697
aS'Twister'
p3698
aasg31
g32
sba(i__main__
Pokemon
p3699
(dp3700
g3
(lp3701
(lp3702
S'131'
p3703
aa(lp3704
S'Lapras'
p3705
aa(lp3706
S'Water'
p3707
aS'Ice'
p3708
aa(lp3709
S'260'
p3710
aa(lp3711
S'186'
p3712
aa(lp3713
S'190'
p3714
aa(lp3715
S'16%'
p3716
aa(lp3717
S'9%'
p3718
aa(lp3719
S'-'
p3720
aa(lp3721
S'Frost Breath'
p3722
aS'Ice Shard'
p3723
aa(lp3724
S'Blizzard'
p3725
aS'Dragon Pulse'
p3726
aS'Ice Beam'
p3727
aasg31
g32
sba(i__main__
Pokemon
p3728
(dp3729
g3
(lp3730
(lp3731
S'132'
p3732
aa(lp3733
S'Ditto'
p3734
aa(lp3735
S'Normal'
p3736
aa(lp3737
S'96'
p3738
aa(lp3739
S'110'
p3740
aa(lp3741
S'110'
p3742
aa(lp3743
S'16%'
p3744
aa(lp3745
S'10%'
p3746
aa(lp3747
S'-'
p3748
aa(lp3749
S'Pound'
p3750
aa(lp3751
S'Struggle'
p3752
aasg31
g32
sba(i__main__
Pokemon
p3753
(dp3754
g3
(lp3755
(lp3756
S'133'
p3757
aa(lp3758
S'Eevee'
p3759
aa(lp3760
S'Normal'
p3761
aa(lp3762
S'110'
p3763
aa(lp3764
S'114'
p3765
aa(lp3766
S'128'
p3767
aa(lp3768
S'32%'
p3769
aa(lp3770
S'10%'
p3771
aa(lp3772
S'25'
p3773
aa(lp3774
S'Quick Attack'
p3775
aS'Tackle'
p3776
aa(lp3777
S'Body Slam'
p3778
aS'Dig'
p3779
aS'Swift'
p3780
aasg31
g32
sba(i__main__
Pokemon
p3781
(dp3782
g3
(lp3783
(lp3784
S'134'
p3785
aa(lp3786
S'Vaporeon'
p3787
aa(lp3788
S'Water'
p3789
aa(lp3790
S'260'
p3791
aa(lp3792
S'186'
p3793
aa(lp3794
S'168'
p3795
aa(lp3796
S'12%'
p3797
aa(lp3798
S'6%'
p3799
aa(lp3800
S'-'
p3801
aa(lp3802
S'Water Gun'
p3803
aa(lp3804
S'Aqua Tail'
p3805
aS'Hydro Pump'
p3806
aS'Water Pulse'
p3807
aasg31
g32
sba(i__main__
Pokemon
p3808
(dp3809
g3
(lp3810
(lp3811
S'135'
p3812
aa(lp3813
S'Jolteon'
p3814
aa(lp3815
S'Electric'
p3816
aa(lp3817
S'130'
p3818
aa(lp3819
S'192'
p3820
aa(lp3821
S'174'
p3822
aa(lp3823
S'12%'
p3824
aa(lp3825
S'6%'
p3826
aa(lp3827
S'-'
p3828
aa(lp3829
S'Thunder Shock'
p3830
aa(lp3831
S'Discharge'
p3832
aS'Thunder'
p3833
aS'Thunderbolt'
p3834
aasg31
g32
sba(i__main__
Pokemon
p3835
(dp3836
g3
(lp3837
(lp3838
S'136'
p3839
aa(lp3840
S'Flareon'
p3841
aa(lp3842
S'Fire'
p3843
aa(lp3844
S'130'
p3845
aa(lp3846
S'238'
p3847
aa(lp3848
S'178'
p3849
aa(lp3850
S'12%'
p3851
aa(lp3852
S'6%'
p3853
aa(lp3854
S'-'
p3855
aa(lp3856
S'Ember'
p3857
aa(lp3858
S'Fire Blast'
p3859
aS'Flamethrower'
p3860
aS'Heat Wave'
p3861
aasg31
g32
sba(i__main__
Pokemon
p3862
(dp3863
g3
(lp3864
(lp3865
S'137'
p3866
aa(lp3867
S'Porygon'
p3868
aa(lp3869
S'Normal'
p3870
aa(lp3871
S'130'
p3872
aa(lp3873
S'156'
p3874
aa(lp3875
S'158'
p3876
aa(lp3877
S'32%'
p3878
aa(lp3879
S'9%'
p3880
aa(lp3881
S'-'
p3882
aa(lp3883
S'Quick Attack'
p3884
aS'Tackle'
p3885
aa(lp3886
S'Discharge'
p3887
aS'Psybeam'
p3888
aS'Signal Beam'
p3889
aasg31
g32
sba(i__main__
Pokemon
p3890
(dp3891
g3
(lp3892
(lp3893
S'138'
p3894
aa(lp3895
S'Omanyte'
p3896
aa(lp3897
S'Rock'
p3898
aS'Water'
p3899
aa(lp3900
S'70'
p3901
aa(lp3902
S'132'
p3903
aa(lp3904
S'160'
p3905
aa(lp3906
S'32%'
p3907
aa(lp3908
S'9%'
p3909
aa(lp3910
S'50'
p3911
aa(lp3912
S'Mud Shot'
p3913
aS'Water Gun'
p3914
aa(lp3915
S'Ancient Power'
p3916
aS'Brine'
p3917
aS'Rock Tomb'
p3918
aasg31
g32
sba(i__main__
Pokemon
p3919
(dp3920
g3
(lp3921
(lp3922
S'139'
p3923
aa(lp3924
S'Omastar'
p3925
aa(lp3926
S'Rock'
p3927
aS'Water'
p3928
aa(lp3929
S'140'
p3930
aa(lp3931
S'180'
p3932
aa(lp3933
S'202'
p3934
aa(lp3935
S'12%'
p3936
aa(lp3937
S'5%'
p3938
aa(lp3939
S'-'
p3940
aa(lp3941
S'Rock Throw'
p3942
aS'Water Gun'
p3943
aa(lp3944
S'Ancient Power'
p3945
aS'Hydro Pump'
p3946
aS'Rock Slide'
p3947
aasg31
g32
sba(i__main__
Pokemon
p3948
(dp3949
g3
(lp3950
(lp3951
S'140'
p3952
aa(lp3953
S'Kabuto'
p3954
aa(lp3955
S'Rock'
p3956
aS'Water'
p3957
aa(lp3958
S'60'
p3959
aa(lp3960
S'148'
p3961
aa(lp3962
S'142'
p3963
aa(lp3964
S'32%'
p3965
aa(lp3966
S'9%'
p3967
aa(lp3968
S'50'
p3969
aa(lp3970
S'Mud Shot'
p3971
aS'Scratch'
p3972
aa(lp3973
S'Ancient Power'
p3974
aS'Aqua Jet'
p3975
aS'Rock Tomb'
p3976
aasg31
g32
sba(i__main__
Pokemon
p3977
(dp3978
g3
(lp3979
(lp3980
S'141'
p3981
aa(lp3982
S'Kabutops'
p3983
aa(lp3984
S'Rock'
p3985
aS'Water'
p3986
aa(lp3987
S'120'
p3988
aa(lp3989
S'190'
p3990
aa(lp3991
S'190'
p3992
aa(lp3993
S'12%'
p3994
aa(lp3995
S'5%'
p3996
aa(lp3997
S'-'
p3998
aa(lp3999
S'Fury Cutter'
p4000
aS'Mud Shot'
p4001
aa(lp4002
S'Ancient Power'
p4003
aS'Stone Edge'
p4004
aS'Water Pulse'
p4005
aasg31
g32
sba(i__main__
Pokemon
p4006
(dp4007
g3
(lp4008
(lp4009
S'142'
p4010
aa(lp4011
S'Aerodactyl'
p4012
aa(lp4013
S'Rock'
p4014
aS'Flying'
p4015
aa(lp4016
S'160'
p4017
aa(lp4018
S'182'
p4019
aa(lp4020
S'162'
p4021
aa(lp4022
S'16%'
p4023
aa(lp4024
S'9%'
p4025
aa(lp4026
S'-'
p4027
aa(lp4028
S'Bite'
p4029
aS'Steel Wing'
p4030
aa(lp4031
S'Ancient Power'
p4032
aS'Hyper Beam'
p4033
aS'Iron Head'
p4034
aasg31
g32
sba(i__main__
Pokemon
p4035
(dp4036
g3
(lp4037
(lp4038
S'143'
p4039
aa(lp4040
S'Snorlax'
p4041
aa(lp4042
S'Normal'
p4043
aa(lp4044
S'320'
p4045
aa(lp4046
S'180'
p4047
aa(lp4048
S'180'
p4049
aa(lp4050
S'16%'
p4051
aa(lp4052
S'9%'
p4053
aa(lp4054
S'-'
p4055
aa(lp4056
S'Lick'
p4057
aS'Zen Headbutt'
p4058
aa(lp4059
S'Body Slam'
p4060
aS'Earthquake'
p4061
aS'Hyper Beam'
p4062
aasg31
g32
sba(i__main__
Pokemon
p4063
(dp4064
g3
(lp4065
(lp4066
S'144'
p4067
aa(lp4068
S'Articuno'
p4069
aa(lp4070
S'Ice'
p4071
aS'Flying'
p4072
aa(lp4073
S'180'
p4074
aa(lp4075
S'198'
p4076
aa(lp4077
S'242'
p4078
aa(lp4079
S'-'
p4080
aa(lp4081
S'10%'
p4082
aa(lp4083
S'-'
p4084
aa(lp4085
S'Frost Breath'
p4086
aa(lp4087
S'Blizzard'
p4088
aS'Ice Beam'
p4089
aS'Icy Wind'
p4090
aasg31
g32
sba(i__main__
Pokemon
p4091
(dp4092
g3
(lp4093
(lp4094
S'145'
p4095
aa(lp4096
S'Zapdos'
p4097
aa(lp4098
S'Electric'
p4099
aS'Flying'
p4100
aa(lp4101
S'180'
p4102
aa(lp4103
S'232'
p4104
aa(lp4105
S'194'
p4106
aa(lp4107
S'-'
p4108
aa(lp4109
S'10%'
p4110
aa(lp4111
S'-'
p4112
aa(lp4113
S'Thunder Shock'
p4114
aa(lp4115
S'Discharge'
p4116
aS'Thunder'
p4117
aS'Thunderbolt'
p4118
aasg31
g32
sba(i__main__
Pokemon
p4119
(dp4120
g3
(lp4121
(lp4122
S'146'
p4123
aa(lp4124
S'Moltres'
p4125
aa(lp4126
S'Fire'
p4127
aS'Flying'
p4128
aa(lp4129
S'180'
p4130
aa(lp4131
S'242'
p4132
aa(lp4133
S'194'
p4134
aa(lp4135
S'-'
p4136
aa(lp4137
S'10%'
p4138
aa(lp4139
S'-'
p4140
aa(lp4141
S'Ember'
p4142
aa(lp4143
S'Fire Blast'
p4144
aS'Flamethrower'
p4145
aS'Heat Wave'
p4146
aasg31
g32
sba(i__main__
Pokemon
p4147
(dp4148
g3
(lp4149
(lp4150
S'147'
p4151
aa(lp4152
S'Dratini'
p4153
aa(lp4154
S'Dragon'
p4155
aa(lp4156
S'82'
p4157
aa(lp4158
S'128'
p4159
aa(lp4160
S'110'
p4161
aa(lp4162
S'32%'
p4163
aa(lp4164
S'9%'
p4165
aa(lp4166
S'25'
p4167
aa(lp4168
S'Dragon Breath'
p4169
aa(lp4170
S'Aqua Tail'
p4171
aS'Twister'
p4172
aS'Wrap'
p4173
aasg31
g32
sba(i__main__
Pokemon
p4174
(dp4175
g3
(lp4176
(lp4177
S'148'
p4178
aa(lp4179
S'Dragonair'
p4180
aa(lp4181
S'Dragon'
p4182
aa(lp4183
S'122'
p4184
aa(lp4185
S'170'
p4186
aa(lp4187
S'152'
p4188
aa(lp4189
S'8%'
p4190
aa(lp4191
S'6%'
p4192
aa(lp4193
S'100'
p4194
aa(lp4195
S'Dragon Breath'
p4196
aa(lp4197
S'Aqua Tail'
p4198
aS'Dragon Pulse'
p4199
aS'Wrap'
p4200
aasg31
g32
sba(i__main__
Pokemon
p4201
(dp4202
g3
(lp4203
(lp4204
S'149'
p4205
aa(lp4206
S'Dragonite'
p4207
aa(lp4208
S'Dragon'
p4209
aS'Flying'
p4210
aa(lp4211
S'182'
p4212
aa(lp4213
S'250'
p4214
aa(lp4215
S'212'
p4216
aa(lp4217
S'4%'
p4218
aa(lp4219
S'5%'
p4220
aa(lp4221
S'-'
p4222
aa(lp4223
S'Dragon Breath'
p4224
aS'Steel Wing'
p4225
aa(lp4226
S'Dragon Claw'
p4227
aS'Dragon Pulse'
p4228
aS'Hyper Beam'
p4229
aasg31
g32
sba(i__main__
Pokemon
p4230
(dp4231
g3
(lp4232
(lp4233
S'150'
p4234
aa(lp4235
S'Mewtwo'
p4236
aa(lp4237
S'Psychic'
p4238
aa(lp4239
S'212'
p4240
aa(lp4241
S'284'
p4242
aa(lp4243
S'202'
p4244
aa(lp4245
S'-'
p4246
aa(lp4247
S'10%'
p4248
aa(lp4249
S'-'
p4250
aa(lp4251
S'Confusion'
p4252
aS'Psycho Cut'
p4253
aa(lp4254
S'Hyper Beam'
p4255
aS'Psychic'
p4256
aS'Shadow Ball'
p4257
aasg31
g32
sba(i__main__
Pokemon
p4258
(dp4259
g3
(lp4260
(lp4261
S'151'
p4262
aa(lp4263
S'Mew'
p4264
aa(lp4265
S'Psychic'
p4266
aa(lp4267
S'200'
p4268
aa(lp4269
S'220'
p4270
aa(lp4271
S'220'
p4272
aa(lp4273
S'-'
p4274
aa(lp4275
S'10%'
p4276
aa(lp4277
S'-'
p4278
aa(lp4279
S'Pound'
p4280
aa(lp4281
S'Dragon Pulse'
p4282
aS'Earthquake'
p4283
aS'Fire Blast'
p4284
aS'Hurricane'
p4285
aS'Hyper Beam'
p4286
aS'Moonblast'
p4287
aS'Psychic'
p4288
aS'Solar Beam'
p4289
aS'Thunder'
p4290
aasg31
g32
sba.